
/data/jsj/proj/nexus-am/tests/amtest/build/amtest-riscv64-nutshell.elf:     file format elf64-littleriscv


Disassembly of section .text:

0000000080000000 <_start>:
    80000000:	00000413          	li	s0,0
    80000004:	0001e117          	auipc	sp,0x1e
    80000008:	ffc10113          	addi	sp,sp,-4 # 8001e000 <_end>
    8000000c:	014010ef          	jal	ra,80001020 <_trm_init>

0000000080000010 <hello>:
    80000010:	fe010113          	addi	sp,sp,-32
    80000014:	00913423          	sd	s1,8(sp)
    80000018:	00113c23          	sd	ra,24(sp)
    8000001c:	00813823          	sd	s0,16(sp)
    80000020:	00a00493          	li	s1,10
    80000024:	04800513          	li	a0,72
    80000028:	00003417          	auipc	s0,0x3
    8000002c:	b1040413          	addi	s0,s0,-1264 # 80002b38 <tests+0x800>
    80000030:	00140413          	addi	s0,s0,1
    80000034:	7c5000ef          	jal	ra,80000ff8 <_putc>
    80000038:	00044503          	lbu	a0,0(s0)
    8000003c:	fe051ae3          	bnez	a0,80000030 <hello+0x20>
    80000040:	fff4849b          	addiw	s1,s1,-1
    80000044:	fe0490e3          	bnez	s1,80000024 <hello+0x14>
    80000048:	01813083          	ld	ra,24(sp)
    8000004c:	01013403          	ld	s0,16(sp)
    80000050:	00813483          	ld	s1,8(sp)
    80000054:	02010113          	addi	sp,sp,32
    80000058:	00008067          	ret

000000008000005c <audio_test>:
    8000005c:	fa010113          	addi	sp,sp,-96
    80000060:	04813823          	sd	s0,80(sp)
    80000064:	040007b7          	lui	a5,0x4000
    80000068:	00100413          	li	s0,1
    8000006c:	05213023          	sd	s2,64(sp)
    80000070:	02d41713          	slli	a4,s0,0x2d
    80000074:	0000b937          	lui	s2,0xb
    80000078:	07d78793          	addi	a5,a5,125 # 400007d <_start-0x7bffff83>
    8000007c:	00679793          	slli	a5,a5,0x6
    80000080:	40070713          	addi	a4,a4,1024
    80000084:	01000693          	li	a3,16
    80000088:	01010613          	addi	a2,sp,16
    8000008c:	00100593          	li	a1,1
    80000090:	c0790513          	addi	a0,s2,-1017 # ac07 <_start-0x7fff53f9>
    80000094:	04913423          	sd	s1,72(sp)
    80000098:	00f13823          	sd	a5,16(sp)
    8000009c:	04113c23          	sd	ra,88(sp)
    800000a0:	03313c23          	sd	s3,56(sp)
    800000a4:	03413823          	sd	s4,48(sp)
    800000a8:	00e13c23          	sd	a4,24(sp)
    800000ac:	05c010ef          	jal	ra,80001108 <_io_write>
    800000b0:	00003797          	auipc	a5,0x3
    800000b4:	30878793          	addi	a5,a5,776 # 800033b8 <audio_payload>
    800000b8:	00011497          	auipc	s1,0x11
    800000bc:	10c48493          	addi	s1,s1,268 # 800111c4 <audio_payload_end>
    800000c0:	40f484bb          	subw	s1,s1,a5
    800000c4:	02f13023          	sd	a5,32(sp)
    800000c8:	02812623          	sw	s0,44(sp)
    800000cc:	06048863          	beqz	s1,8000013c <audio_test+0xe0>
    800000d0:	00000413          	li	s0,0
    800000d4:	00000793          	li	a5,0
    800000d8:	00001a37          	lui	s4,0x1
    800000dc:	c0790913          	addi	s2,s2,-1017
    800000e0:	00003997          	auipc	s3,0x3
    800000e4:	a7898993          	addi	s3,s3,-1416 # 80002b58 <tests+0x820>
    800000e8:	40f4873b          	subw	a4,s1,a5
    800000ec:	01000693          	li	a3,16
    800000f0:	02010613          	addi	a2,sp,32
    800000f4:	00200593          	li	a1,2
    800000f8:	00090513          	mv	a0,s2
    800000fc:	00070793          	mv	a5,a4
    80000100:	00ea7463          	bgeu	s4,a4,80000108 <audio_test+0xac>
    80000104:	000017b7          	lui	a5,0x1
    80000108:	02f12423          	sw	a5,40(sp)
    8000010c:	7fd000ef          	jal	ra,80001108 <_io_write>
    80000110:	02812703          	lw	a4,40(sp)
    80000114:	02013783          	ld	a5,32(sp)
    80000118:	00048613          	mv	a2,s1
    8000011c:	0087043b          	addw	s0,a4,s0
    80000120:	00e787b3          	add	a5,a5,a4
    80000124:	00040593          	mv	a1,s0
    80000128:	00098513          	mv	a0,s3
    8000012c:	02f13023          	sd	a5,32(sp)
    80000130:	581010ef          	jal	ra,80001eb0 <printf>
    80000134:	00040793          	mv	a5,s0
    80000138:	fa9468e3          	bltu	s0,s1,800000e8 <audio_test+0x8c>
    8000013c:	0000b437          	lui	s0,0xb
    80000140:	c0740413          	addi	s0,s0,-1017 # ac07 <_start-0x7fff53f9>
    80000144:	00800693          	li	a3,8
    80000148:	00810613          	addi	a2,sp,8
    8000014c:	00300593          	li	a1,3
    80000150:	00040513          	mv	a0,s0
    80000154:	765000ef          	jal	ra,800010b8 <_io_read>
    80000158:	00c12783          	lw	a5,12(sp)
    8000015c:	fef044e3          	bgtz	a5,80000144 <audio_test+0xe8>
    80000160:	05813083          	ld	ra,88(sp)
    80000164:	05013403          	ld	s0,80(sp)
    80000168:	04813483          	ld	s1,72(sp)
    8000016c:	04013903          	ld	s2,64(sp)
    80000170:	03813983          	ld	s3,56(sp)
    80000174:	03013a03          	ld	s4,48(sp)
    80000178:	06010113          	addi	sp,sp,96
    8000017c:	00008067          	ret

0000000080000180 <devscan>:
    80000180:	00012797          	auipc	a5,0x12
    80000184:	86078793          	addi	a5,a5,-1952 # 800119e0 <_heap>
    80000188:	0087b603          	ld	a2,8(a5)
    8000018c:	0007b583          	ld	a1,0(a5)
    80000190:	f7010113          	addi	sp,sp,-144
    80000194:	00003517          	auipc	a0,0x3
    80000198:	9ec50513          	addi	a0,a0,-1556 # 80002b80 <tests+0x848>
    8000019c:	08113423          	sd	ra,136(sp)
    800001a0:	06913c23          	sd	s1,120(sp)
    800001a4:	08813023          	sd	s0,128(sp)
    800001a8:	07213823          	sd	s2,112(sp)
    800001ac:	07313423          	sd	s3,104(sp)
    800001b0:	07413023          	sd	s4,96(sp)
    800001b4:	05513c23          	sd	s5,88(sp)
    800001b8:	05613823          	sd	s6,80(sp)
    800001bc:	05713423          	sd	s7,72(sp)
    800001c0:	05813023          	sd	s8,64(sp)
    800001c4:	03913c23          	sd	s9,56(sp)
    800001c8:	4e9010ef          	jal	ra,80001eb0 <printf>
    800001cc:	00003517          	auipc	a0,0x3
    800001d0:	9cc50513          	addi	a0,a0,-1588 # 80002b98 <tests+0x860>
    800001d4:	4dd010ef          	jal	ra,80001eb0 <printf>
    800001d8:	0000b537          	lui	a0,0xb
    800001dc:	00800693          	li	a3,8
    800001e0:	01010613          	addi	a2,sp,16
    800001e4:	00100593          	li	a1,1
    800001e8:	c0350513          	addi	a0,a0,-1021 # ac03 <_start-0x7fff53fd>
    800001ec:	6cd000ef          	jal	ra,800010b8 <_io_read>
    800001f0:	00012223          	sw	zero,4(sp)
    800001f4:	00412703          	lw	a4,4(sp)
    800001f8:	009897b7          	lui	a5,0x989
    800001fc:	67f78793          	addi	a5,a5,1663 # 98967f <_start-0x7f676981>
    80000200:	0007071b          	sext.w	a4,a4
    80000204:	01412483          	lw	s1,20(sp)
    80000208:	00e7ce63          	blt	a5,a4,80000224 <devscan+0xa4>
    8000020c:	00412703          	lw	a4,4(sp)
    80000210:	0017071b          	addiw	a4,a4,1
    80000214:	00e12223          	sw	a4,4(sp)
    80000218:	00412703          	lw	a4,4(sp)
    8000021c:	0007071b          	sext.w	a4,a4
    80000220:	fee7d6e3          	bge	a5,a4,8000020c <devscan+0x8c>
    80000224:	0000b437          	lui	s0,0xb
    80000228:	00800693          	li	a3,8
    8000022c:	01010613          	addi	a2,sp,16
    80000230:	00100593          	li	a1,1
    80000234:	c0340513          	addi	a0,s0,-1021 # ac03 <_start-0x7fff53fd>
    80000238:	681000ef          	jal	ra,800010b8 <_io_read>
    8000023c:	01412583          	lw	a1,20(sp)
    80000240:	00003517          	auipc	a0,0x3
    80000244:	97850513          	addi	a0,a0,-1672 # 80002bb8 <tests+0x880>
    80000248:	00100993          	li	s3,1
    8000024c:	409585bb          	subw	a1,a1,s1
    80000250:	461010ef          	jal	ra,80001eb0 <printf>
    80000254:	00800693          	li	a3,8
    80000258:	00810613          	addi	a2,sp,8
    8000025c:	00100593          	li	a1,1
    80000260:	c0440513          	addi	a0,s0,-1020
    80000264:	655000ef          	jal	ra,800010b8 <_io_read>
    80000268:	00c12603          	lw	a2,12(sp)
    8000026c:	00812583          	lw	a1,8(sp)
    80000270:	00003517          	auipc	a0,0x3
    80000274:	96850513          	addi	a0,a0,-1688 # 80002bd8 <tests+0x8a0>
    80000278:	0000bb37          	lui	s6,0xb
    8000027c:	02099493          	slli	s1,s3,0x20
    80000280:	006a0937          	lui	s2,0x6a0
    80000284:	42d010ef          	jal	ra,80001eb0 <printf>
    80000288:	00000413          	li	s0,0
    8000028c:	05f9091b          	addiw	s2,s2,95
    80000290:	00148493          	addi	s1,s1,1
    80000294:	c04b0a93          	addi	s5,s6,-1020 # ac04 <_start-0x7fff53fc>
    80000298:	06400a13          	li	s4,100
    8000029c:	00000b93          	li	s7,0
    800002a0:	00812583          	lw	a1,8(sp)
    800002a4:	00c12603          	lw	a2,12(sp)
    800002a8:	01c00693          	li	a3,28
    800002ac:	01f5d71b          	srliw	a4,a1,0x1f
    800002b0:	01f6579b          	srliw	a5,a2,0x1f
    800002b4:	00b7073b          	addw	a4,a4,a1
    800002b8:	00c787bb          	addw	a5,a5,a2
    800002bc:	4017571b          	sraiw	a4,a4,0x1
    800002c0:	4017d79b          	sraiw	a5,a5,0x1
    800002c4:	fce7071b          	addiw	a4,a4,-50
    800002c8:	fce7879b          	addiw	a5,a5,-50
    800002cc:	017787bb          	addw	a5,a5,s7
    800002d0:	0087073b          	addw	a4,a4,s0
    800002d4:	001b8b9b          	addiw	s7,s7,1
    800002d8:	01010613          	addi	a2,sp,16
    800002dc:	00200593          	li	a1,2
    800002e0:	000a8513          	mv	a0,s5
    800002e4:	01212023          	sw	s2,0(sp)
    800002e8:	00e12823          	sw	a4,16(sp)
    800002ec:	00f12a23          	sw	a5,20(sp)
    800002f0:	02913023          	sd	s1,32(sp)
    800002f4:	03312423          	sw	s3,40(sp)
    800002f8:	00213c23          	sd	sp,24(sp)
    800002fc:	60d000ef          	jal	ra,80001108 <_io_write>
    80000300:	fb4b90e3          	bne	s7,s4,800002a0 <devscan+0x120>
    80000304:	0014041b          	addiw	s0,s0,1
    80000308:	f9741ae3          	bne	s0,s7,8000029c <devscan+0x11c>
    8000030c:	00003517          	auipc	a0,0x3
    80000310:	8e450513          	addi	a0,a0,-1820 # 80002bf0 <tests+0x8b8>
    80000314:	39d010ef          	jal	ra,80001eb0 <printf>
    80000318:	00800693          	li	a3,8
    8000031c:	00810613          	addi	a2,sp,8
    80000320:	00100593          	li	a1,1
    80000324:	c06b0513          	addi	a0,s6,-1018
    80000328:	591000ef          	jal	ra,800010b8 <_io_read>
    8000032c:	00812603          	lw	a2,8(sp)
    80000330:	00c12583          	lw	a1,12(sp)
    80000334:	00003517          	auipc	a0,0x3
    80000338:	8ec50513          	addi	a0,a0,-1812 # 80002c20 <tests+0x8e8>
    8000033c:	00011497          	auipc	s1,0x11
    80000340:	6b448493          	addi	s1,s1,1716 # 800119f0 <buf.1501>
    80000344:	36d010ef          	jal	ra,80001eb0 <printf>
    80000348:	00812703          	lw	a4,8(sp)
    8000034c:	20000793          	li	a5,512
    80000350:	01000693          	li	a3,16
    80000354:	02e7d7bb          	divuw	a5,a5,a4
    80000358:	01010613          	addi	a2,sp,16
    8000035c:	00200593          	li	a1,2
    80000360:	c06b0513          	addi	a0,s6,-1018
    80000364:	00913823          	sd	s1,16(sp)
    80000368:	00012c23          	sw	zero,24(sp)
    8000036c:	00003917          	auipc	s2,0x3
    80000370:	8ec90913          	addi	s2,s2,-1812 # 80002c58 <tests+0x920>
    80000374:	00011417          	auipc	s0,0x11
    80000378:	67e40413          	addi	s0,s0,1662 # 800119f2 <buf.1501+0x2>
    8000037c:	00012997          	auipc	s3,0x12
    80000380:	87498993          	addi	s3,s3,-1932 # 80011bf0 <color_buf>
    80000384:	00002a17          	auipc	s4,0x2
    80000388:	7f4a0a13          	addi	s4,s4,2036 # 80002b78 <tests+0x840>
    8000038c:	00f12e23          	sw	a5,28(sp)
    80000390:	579000ef          	jal	ra,80001108 <_io_write>
    80000394:	0014c603          	lbu	a2,1(s1)
    80000398:	0004c583          	lbu	a1,0(s1)
    8000039c:	00090513          	mv	a0,s2
    800003a0:	00400493          	li	s1,4
    800003a4:	30d010ef          	jal	ra,80001eb0 <printf>
    800003a8:	408484bb          	subw	s1,s1,s0
    800003ac:	00090513          	mv	a0,s2
    800003b0:	02898463          	beq	s3,s0,800003d8 <devscan+0x258>
    800003b4:	00144603          	lbu	a2,1(s0)
    800003b8:	00044583          	lbu	a1,0(s0)
    800003bc:	2f5010ef          	jal	ra,80001eb0 <printf>
    800003c0:	008487bb          	addw	a5,s1,s0
    800003c4:	01f7f793          	andi	a5,a5,31
    800003c8:	0c078663          	beqz	a5,80000494 <devscan+0x314>
    800003cc:	00240413          	addi	s0,s0,2
    800003d0:	00090513          	mv	a0,s2
    800003d4:	fe8990e3          	bne	s3,s0,800003b4 <devscan+0x234>
    800003d8:	000104b7          	lui	s1,0x10
    800003dc:	00001b37          	lui	s6,0x1
    800003e0:	00008bb7          	lui	s7,0x8
    800003e4:	00000913          	li	s2,0
    800003e8:	fff48493          	addi	s1,s1,-1 # ffff <_start-0x7fff0001>
    800003ec:	00eb0b13          	addi	s6,s6,14 # 100e <_start-0x7fffeff2>
    800003f0:	086b8b93          	addi	s7,s7,134 # 8086 <_start-0x7fff7f7a>
    800003f4:	0109199b          	slliw	s3,s2,0x10
    800003f8:	00000413          	li	s0,0
    800003fc:	80000ab7          	lui	s5,0x80000
    80000400:	00003a17          	auipc	s4,0x3
    80000404:	868a0a13          	addi	s4,s4,-1944 # 80002c68 <tests+0x930>
    80000408:	0180006f          	j	80000420 <devscan+0x2a0>
    8000040c:	00002517          	auipc	a0,0x2
    80000410:	76c50513          	addi	a0,a0,1900 # 80002b78 <tests+0x840>
    80000414:	29d010ef          	jal	ra,80001eb0 <printf>
    80000418:	02000793          	li	a5,32
    8000041c:	08f40463          	beq	s0,a5,800004a4 <devscan+0x324>
    80000420:	00b4159b          	slliw	a1,s0,0xb
    80000424:	00b9e5b3          	or	a1,s3,a1
    80000428:	0155e5b3          	or	a1,a1,s5
    8000042c:	02059593          	slli	a1,a1,0x20
    80000430:	0205d593          	srli	a1,a1,0x20
    80000434:	01010613          	addi	a2,sp,16
    80000438:	00400693          	li	a3,4
    8000043c:	08000513          	li	a0,128
    80000440:	479000ef          	jal	ra,800010b8 <_io_read>
    80000444:	0005079b          	sext.w	a5,a0
    80000448:	00040613          	mv	a2,s0
    8000044c:	00090593          	mv	a1,s2
    80000450:	0014041b          	addiw	s0,s0,1
    80000454:	000a0513          	mv	a0,s4
    80000458:	fc0780e3          	beqz	a5,80000418 <devscan+0x298>
    8000045c:	01012683          	lw	a3,16(sp)
    80000460:	03069c93          	slli	s9,a3,0x30
    80000464:	0106dc1b          	srliw	s8,a3,0x10
    80000468:	030cdc93          	srli	s9,s9,0x30
    8000046c:	0096f733          	and	a4,a3,s1
    80000470:	000c0693          	mv	a3,s8
    80000474:	fa9c82e3          	beq	s9,s1,80000418 <devscan+0x298>
    80000478:	239010ef          	jal	ra,80001eb0 <printf>
    8000047c:	f96c18e3          	bne	s8,s6,8000040c <devscan+0x28c>
    80000480:	f97c96e3          	bne	s9,s7,8000040c <devscan+0x28c>
    80000484:	00003517          	auipc	a0,0x3
    80000488:	80c50513          	addi	a0,a0,-2036 # 80002c90 <tests+0x958>
    8000048c:	225010ef          	jal	ra,80001eb0 <printf>
    80000490:	f7dff06f          	j	8000040c <devscan+0x28c>
    80000494:	000a0513          	mv	a0,s4
    80000498:	219010ef          	jal	ra,80001eb0 <printf>
    8000049c:	00240413          	addi	s0,s0,2
    800004a0:	f31ff06f          	j	800003d0 <devscan+0x250>
    800004a4:	0019091b          	addiw	s2,s2,1
    800004a8:	10000793          	li	a5,256
    800004ac:	f4f914e3          	bne	s2,a5,800003f4 <devscan+0x274>
    800004b0:	00003517          	auipc	a0,0x3
    800004b4:	80850513          	addi	a0,a0,-2040 # 80002cb8 <tests+0x980>
    800004b8:	1f9010ef          	jal	ra,80001eb0 <printf>
    800004bc:	0000006f          	j	800004bc <devscan+0x33c>

00000000800004c0 <redraw>:
    800004c0:	f9010113          	addi	sp,sp,-112
    800004c4:	06113423          	sd	ra,104(sp)
    800004c8:	04913c23          	sd	s1,88(sp)
    800004cc:	05213823          	sd	s2,80(sp)
    800004d0:	03513c23          	sd	s5,56(sp)
    800004d4:	06813023          	sd	s0,96(sp)
    800004d8:	05313423          	sd	s3,72(sp)
    800004dc:	05413023          	sd	s4,64(sp)
    800004e0:	03613823          	sd	s6,48(sp)
    800004e4:	03713423          	sd	s7,40(sp)
    800004e8:	03813023          	sd	s8,32(sp)
    800004ec:	01913c23          	sd	s9,24(sp)
    800004f0:	01a13823          	sd	s10,16(sp)
    800004f4:	01b13423          	sd	s11,8(sp)
    800004f8:	735000ef          	jal	ra,8000142c <screen_width>
    800004fc:	41f5591b          	sraiw	s2,a0,0x1f
    80000500:	01b9591b          	srliw	s2,s2,0x1b
    80000504:	00a9093b          	addw	s2,s2,a0
    80000508:	755000ef          	jal	ra,8000145c <screen_height>
    8000050c:	41f5549b          	sraiw	s1,a0,0x1f
    80000510:	01b4d49b          	srliw	s1,s1,0x1b
    80000514:	00a484bb          	addw	s1,s1,a0
    80000518:	4059591b          	sraiw	s2,s2,0x5
    8000051c:	4054d49b          	sraiw	s1,s1,0x5
    80000520:	02990abb          	mulw	s5,s2,s1
    80000524:	40000713          	li	a4,1024
    80000528:	0d576a63          	bltu	a4,s5,800005fc <redraw+0x13c>
    8000052c:	fffa841b          	addiw	s0,s5,-1
    80000530:	02041413          	slli	s0,s0,0x20
    80000534:	02045413          	srli	s0,s0,0x20
    80000538:	00011b97          	auipc	s7,0x11
    8000053c:	6b8b8b93          	addi	s7,s7,1720 # 80011bf0 <color_buf>
    80000540:	00241413          	slli	s0,s0,0x2
    80000544:	00011797          	auipc	a5,0x11
    80000548:	6b078793          	addi	a5,a5,1712 # 80011bf4 <color_buf+0x4>
    8000054c:	00013997          	auipc	s3,0x13
    80000550:	72498993          	addi	s3,s3,1828 # 80013c70 <canvas+0x80>
    80000554:	00f40433          	add	s0,s0,a5
    80000558:	00000c93          	li	s9,0
    8000055c:	00090b1b          	sext.w	s6,s2
    80000560:	000b8d13          	mv	s10,s7
    80000564:	000c8a1b          	sext.w	s4,s9
    80000568:	f8098d93          	addi	s11,s3,-128
    8000056c:	00000c13          	li	s8,0
    80000570:	000a8c63          	beqz	s5,80000588 <redraw+0xc8>
    80000574:	000da803          	lw	a6,0(s11)
    80000578:	000b8793          	mv	a5,s7
    8000057c:	0107a023          	sw	a6,0(a5)
    80000580:	00478793          	addi	a5,a5,4
    80000584:	fe879ce3          	bne	a5,s0,8000057c <redraw+0xbc>
    80000588:	000c0593          	mv	a1,s8
    8000058c:	00048713          	mv	a4,s1
    80000590:	00090693          	mv	a3,s2
    80000594:	000a0613          	mv	a2,s4
    80000598:	000d0513          	mv	a0,s10
    8000059c:	004d8d93          	addi	s11,s11,4
    800005a0:	5f9000ef          	jal	ra,80001398 <draw_rect>
    800005a4:	016c0c3b          	addw	s8,s8,s6
    800005a8:	fd3d94e3          	bne	s11,s3,80000570 <redraw+0xb0>
    800005ac:	080d8993          	addi	s3,s11,128
    800005b0:	00014797          	auipc	a5,0x14
    800005b4:	6c078793          	addi	a5,a5,1728 # 80014c70 <stack.1305+0x60>
    800005b8:	01948cbb          	addw	s9,s1,s9
    800005bc:	faf994e3          	bne	s3,a5,80000564 <redraw+0xa4>
    800005c0:	06013403          	ld	s0,96(sp)
    800005c4:	06813083          	ld	ra,104(sp)
    800005c8:	05813483          	ld	s1,88(sp)
    800005cc:	05013903          	ld	s2,80(sp)
    800005d0:	04813983          	ld	s3,72(sp)
    800005d4:	04013a03          	ld	s4,64(sp)
    800005d8:	03813a83          	ld	s5,56(sp)
    800005dc:	03013b03          	ld	s6,48(sp)
    800005e0:	02813b83          	ld	s7,40(sp)
    800005e4:	02013c03          	ld	s8,32(sp)
    800005e8:	01813c83          	ld	s9,24(sp)
    800005ec:	01013d03          	ld	s10,16(sp)
    800005f0:	00813d83          	ld	s11,8(sp)
    800005f4:	07010113          	addi	sp,sp,112
    800005f8:	5f50006f          	j	800013ec <draw_sync>
    800005fc:	01600613          	li	a2,22
    80000600:	00002597          	auipc	a1,0x2
    80000604:	6c858593          	addi	a1,a1,1736 # 80002cc8 <tests+0x990>
    80000608:	00002517          	auipc	a0,0x2
    8000060c:	6f850513          	addi	a0,a0,1784 # 80002d00 <tests+0x9c8>
    80000610:	0a1010ef          	jal	ra,80001eb0 <printf>
    80000614:	00100513          	li	a0,1
    80000618:	1e5000ef          	jal	ra,80000ffc <_halt>

000000008000061c <update>:
    8000061c:	00015617          	auipc	a2,0x15
    80000620:	5fc60613          	addi	a2,a2,1532 # 80015c18 <tsc.1311>
    80000624:	00062783          	lw	a5,0(a2)
    80000628:	fe010113          	addi	sp,sp,-32
    8000062c:	00813c23          	sd	s0,24(sp)
    80000630:	00913823          	sd	s1,16(sp)
    80000634:	01213423          	sd	s2,8(sp)
    80000638:	0017841b          	addiw	s0,a5,1
    8000063c:	00012717          	auipc	a4,0x12
    80000640:	63470713          	addi	a4,a4,1588 # 80012c70 <used+0x80>
    80000644:	00013697          	auipc	a3,0x13
    80000648:	62c68693          	addi	a3,a3,1580 # 80013c70 <canvas+0x80>
    8000064c:	00862023          	sw	s0,0(a2)
    80000650:	f8070793          	addi	a5,a4,-128
    80000654:	0007a023          	sw	zero,0(a5)
    80000658:	00478793          	addi	a5,a5,4
    8000065c:	fee79ce3          	bne	a5,a4,80000654 <update+0x38>
    80000660:	08078713          	addi	a4,a5,128
    80000664:	fee696e3          	bne	a3,a4,80000650 <update+0x34>
    80000668:	0ff47693          	andi	a3,s0,255
    8000066c:	0016979b          	slliw	a5,a3,0x1
    80000670:	00d787bb          	addw	a5,a5,a3
    80000674:	0036971b          	slliw	a4,a3,0x3
    80000678:	40d7073b          	subw	a4,a4,a3
    8000067c:	0017979b          	slliw	a5,a5,0x1
    80000680:	0ff7f793          	andi	a5,a5,255
    80000684:	0ff77713          	andi	a4,a4,255
    80000688:	0087171b          	slliw	a4,a4,0x8
    8000068c:	0107979b          	slliw	a5,a5,0x10
    80000690:	00e7e7b3          	or	a5,a5,a4
    80000694:	0ff47713          	andi	a4,s0,255
    80000698:	00e7e7b3          	or	a5,a5,a4
    8000069c:	00013497          	auipc	s1,0x13
    800006a0:	55448493          	addi	s1,s1,1364 # 80013bf0 <canvas>
    800006a4:	00012f97          	auipc	t6,0x12
    800006a8:	54cf8f93          	addi	t6,t6,1356 # 80012bf0 <used>
    800006ac:	00f4a023          	sw	a5,0(s1)
    800006b0:	00100793          	li	a5,1
    800006b4:	00ffa023          	sw	a5,0(t6)
    800006b8:	00100693          	li	a3,1
    800006bc:	00000713          	li	a4,0
    800006c0:	00100e93          	li	t4,1
    800006c4:	00000593          	li	a1,0
    800006c8:	00000893          	li	a7,0
    800006cc:	00000813          	li	a6,0
    800006d0:	01f00313          	li	t1,31
    800006d4:	00002e17          	auipc	t3,0x2
    800006d8:	65ce0e13          	addi	t3,t3,1628 # 80002d30 <dx.1312>
    800006dc:	00100913          	li	s2,1
    800006e0:	40000393          	li	t2,1024
    800006e4:	00400613          	li	a2,4
    800006e8:	00e807bb          	addw	a5,a6,a4
    800006ec:	fff6061b          	addiw	a2,a2,-1
    800006f0:	00158713          	addi	a4,a1,1
    800006f4:	00d886bb          	addw	a3,a7,a3
    800006f8:	02f36063          	bltu	t1,a5,80000718 <update+0xfc>
    800006fc:	00579513          	slli	a0,a5,0x5
    80000700:	00d50533          	add	a0,a0,a3
    80000704:	00251513          	slli	a0,a0,0x2
    80000708:	00af8f33          	add	t5,t6,a0
    8000070c:	00d36663          	bltu	t1,a3,80000718 <update+0xfc>
    80000710:	000f2283          	lw	t0,0(t5)
    80000714:	04028e63          	beqz	t0,80000770 <update+0x154>
    80000718:	00377593          	andi	a1,a4,3
    8000071c:	00259793          	slli	a5,a1,0x2
    80000720:	00fe07b3          	add	a5,t3,a5
    80000724:	02060863          	beqz	a2,80000754 <update+0x138>
    80000728:	0007a703          	lw	a4,0(a5)
    8000072c:	0107a683          	lw	a3,16(a5)
    80000730:	fff6061b          	addiw	a2,a2,-1
    80000734:	00e807bb          	addw	a5,a6,a4
    80000738:	00d886bb          	addw	a3,a7,a3
    8000073c:	00158713          	addi	a4,a1,1
    80000740:	faf37ee3          	bgeu	t1,a5,800006fc <update+0xe0>
    80000744:	00377593          	andi	a1,a4,3
    80000748:	00259793          	slli	a5,a1,0x2
    8000074c:	00fe07b3          	add	a5,t3,a5
    80000750:	fc061ce3          	bnez	a2,80000728 <update+0x10c>
    80000754:	001e8e9b          	addiw	t4,t4,1
    80000758:	067e8863          	beq	t4,t2,800007c8 <update+0x1ac>
    8000075c:	00259793          	slli	a5,a1,0x2
    80000760:	00fe07b3          	add	a5,t3,a5
    80000764:	0007a703          	lw	a4,0(a5)
    80000768:	0107a683          	lw	a3,16(a5)
    8000076c:	f79ff06f          	j	800006e4 <update+0xc8>
    80000770:	401ed81b          	sraiw	a6,t4,0x1
    80000774:	0088083b          	addw	a6,a6,s0
    80000778:	0ff87893          	andi	a7,a6,255
    8000077c:	0018971b          	slliw	a4,a7,0x1
    80000780:	0117073b          	addw	a4,a4,a7
    80000784:	0038961b          	slliw	a2,a7,0x3
    80000788:	4116063b          	subw	a2,a2,a7
    8000078c:	0017171b          	slliw	a4,a4,0x1
    80000790:	0ff77713          	andi	a4,a4,255
    80000794:	0ff67613          	andi	a2,a2,255
    80000798:	0107171b          	slliw	a4,a4,0x10
    8000079c:	0086161b          	slliw	a2,a2,0x8
    800007a0:	0ff87813          	andi	a6,a6,255
    800007a4:	00c76733          	or	a4,a4,a2
    800007a8:	01076733          	or	a4,a4,a6
    800007ac:	00a48533          	add	a0,s1,a0
    800007b0:	012f2023          	sw	s2,0(t5)
    800007b4:	00e52023          	sw	a4,0(a0)
    800007b8:	001e8e9b          	addiw	t4,t4,1
    800007bc:	00068893          	mv	a7,a3
    800007c0:	00078813          	mv	a6,a5
    800007c4:	f87e9ce3          	bne	t4,t2,8000075c <update+0x140>
    800007c8:	01813403          	ld	s0,24(sp)
    800007cc:	01013483          	ld	s1,16(sp)
    800007d0:	00813903          	ld	s2,8(sp)
    800007d4:	02010113          	addi	sp,sp,32
    800007d8:	00008067          	ret

00000000800007dc <video_test>:
    800007dc:	fc010113          	addi	sp,sp,-64
    800007e0:	02913423          	sd	s1,40(sp)
    800007e4:	03213023          	sd	s2,32(sp)
    800007e8:	01313c23          	sd	s3,24(sp)
    800007ec:	01413823          	sd	s4,16(sp)
    800007f0:	01513423          	sd	s5,8(sp)
    800007f4:	01613023          	sd	s6,0(sp)
    800007f8:	02113c23          	sd	ra,56(sp)
    800007fc:	02813823          	sd	s0,48(sp)
    80000800:	00000993          	li	s3,0
    80000804:	00000913          	li	s2,0
    80000808:	00000493          	li	s1,0
    8000080c:	02100a93          	li	s5,33
    80000810:	3e800a13          	li	s4,1000
    80000814:	00002b17          	auipc	s6,0x2
    80000818:	50cb0b13          	addi	s6,s6,1292 # 80002d20 <tests+0x9e8>
    8000081c:	2f5000ef          	jal	ra,80001310 <uptime>
    80000820:	02051413          	slli	s0,a0,0x20
    80000824:	02045413          	srli	s0,s0,0x20
    80000828:	409407b3          	sub	a5,s0,s1
    8000082c:	02faec63          	bltu	s5,a5,80000864 <video_test+0x88>
    80000830:	412407b3          	sub	a5,s0,s2
    80000834:	fefa74e3          	bgeu	s4,a5,8000081c <video_test+0x40>
    80000838:	00098613          	mv	a2,s3
    8000083c:	00040593          	mv	a1,s0
    80000840:	000b0513          	mv	a0,s6
    80000844:	66c010ef          	jal	ra,80001eb0 <printf>
    80000848:	2c9000ef          	jal	ra,80001310 <uptime>
    8000084c:	00040913          	mv	s2,s0
    80000850:	02051413          	slli	s0,a0,0x20
    80000854:	02045413          	srli	s0,s0,0x20
    80000858:	409407b3          	sub	a5,s0,s1
    8000085c:	00000993          	li	s3,0
    80000860:	fcfaf8e3          	bgeu	s5,a5,80000830 <video_test+0x54>
    80000864:	db9ff0ef          	jal	ra,8000061c <update>
    80000868:	0019899b          	addiw	s3,s3,1
    8000086c:	c55ff0ef          	jal	ra,800004c0 <redraw>
    80000870:	00040493          	mv	s1,s0
    80000874:	fbdff06f          	j	80000830 <video_test+0x54>

0000000080000878 <keyboard_test>:
    80000878:	fd010113          	addi	sp,sp,-48
    8000087c:	00002517          	auipc	a0,0x2
    80000880:	4e450513          	addi	a0,a0,1252 # 80002d60 <dy.1313+0x20>
    80000884:	02813023          	sd	s0,32(sp)
    80000888:	00913c23          	sd	s1,24(sp)
    8000088c:	01213823          	sd	s2,16(sp)
    80000890:	01313423          	sd	s3,8(sp)
    80000894:	01413023          	sd	s4,0(sp)
    80000898:	02113423          	sd	ra,40(sp)
    8000089c:	00011997          	auipc	s3,0x11
    800008a0:	92c98993          	addi	s3,s3,-1748 # 800111c8 <names>
    800008a4:	60c010ef          	jal	ra,80001eb0 <printf>
    800008a8:	00008437          	lui	s0,0x8
    800008ac:	00002917          	auipc	s2,0x2
    800008b0:	4a490913          	addi	s2,s2,1188 # 80002d50 <dy.1313+0x10>
    800008b4:	00002a17          	auipc	s4,0x2
    800008b8:	4a4a0a13          	addi	s4,s4,1188 # 80002d58 <dy.1313+0x18>
    800008bc:	00002497          	auipc	s1,0x2
    800008c0:	4c448493          	addi	s1,s1,1220 # 80002d80 <dy.1313+0x40>
    800008c4:	295000ef          	jal	ra,80001358 <read_key>
    800008c8:	008577b3          	and	a5,a0,s0
    800008cc:	0007879b          	sext.w	a5,a5
    800008d0:	00854733          	xor	a4,a0,s0
    800008d4:	00078663          	beqz	a5,800008e0 <keyboard_test+0x68>
    800008d8:	0007051b          	sext.w	a0,a4
    800008dc:	00100793          	li	a5,1
    800008e0:	fe0502e3          	beqz	a0,800008c4 <keyboard_test+0x4c>
    800008e4:	00351713          	slli	a4,a0,0x3
    800008e8:	00e98733          	add	a4,s3,a4
    800008ec:	00050593          	mv	a1,a0
    800008f0:	00073603          	ld	a2,0(a4)
    800008f4:	00048513          	mv	a0,s1
    800008f8:	00090693          	mv	a3,s2
    800008fc:	00079463          	bnez	a5,80000904 <keyboard_test+0x8c>
    80000900:	000a0693          	mv	a3,s4
    80000904:	5ac010ef          	jal	ra,80001eb0 <printf>
    80000908:	fbdff06f          	j	800008c4 <keyboard_test+0x4c>

000000008000090c <rtc_test>:
    8000090c:	fa010113          	addi	sp,sp,-96
    80000910:	04813823          	sd	s0,80(sp)
    80000914:	04913423          	sd	s1,72(sp)
    80000918:	05213023          	sd	s2,64(sp)
    8000091c:	03313c23          	sd	s3,56(sp)
    80000920:	03413823          	sd	s4,48(sp)
    80000924:	03513423          	sd	s5,40(sp)
    80000928:	04113c23          	sd	ra,88(sp)
    8000092c:	3e800413          	li	s0,1000
    80000930:	00100493          	li	s1,1
    80000934:	00002a17          	auipc	s4,0x2
    80000938:	72ca0a13          	addi	s4,s4,1836 # 80003060 <dy.1313+0x320>
    8000093c:	00100993          	li	s3,1
    80000940:	00002a97          	auipc	s5,0x2
    80000944:	750a8a93          	addi	s5,s5,1872 # 80003090 <dy.1313+0x350>
    80000948:	00002917          	auipc	s2,0x2
    8000094c:	73890913          	addi	s2,s2,1848 # 80003080 <dy.1313+0x340>
    80000950:	1c1000ef          	jal	ra,80001310 <uptime>
    80000954:	0005051b          	sext.w	a0,a0
    80000958:	fe856ce3          	bltu	a0,s0,80000950 <rtc_test+0x44>
    8000095c:	00810513          	addi	a0,sp,8
    80000960:	1e1000ef          	jal	ra,80001340 <get_timeofday>
    80000964:	00812583          	lw	a1,8(sp)
    80000968:	01c12803          	lw	a6,28(sp)
    8000096c:	01812783          	lw	a5,24(sp)
    80000970:	01412703          	lw	a4,20(sp)
    80000974:	01012683          	lw	a3,16(sp)
    80000978:	00c12603          	lw	a2,12(sp)
    8000097c:	000a0513          	mv	a0,s4
    80000980:	530010ef          	jal	ra,80001eb0 <printf>
    80000984:	00100593          	li	a1,1
    80000988:	00090513          	mv	a0,s2
    8000098c:	01348663          	beq	s1,s3,80000998 <rtc_test+0x8c>
    80000990:	00048593          	mv	a1,s1
    80000994:	000a8513          	mv	a0,s5
    80000998:	518010ef          	jal	ra,80001eb0 <printf>
    8000099c:	0014849b          	addiw	s1,s1,1
    800009a0:	3e84041b          	addiw	s0,s0,1000
    800009a4:	fadff06f          	j	80000950 <rtc_test+0x44>

00000000800009a8 <simple_trap>:
    800009a8:	00052783          	lw	a5,0(a0)
    800009ac:	ff010113          	addi	sp,sp,-16
    800009b0:	00813023          	sd	s0,0(sp)
    800009b4:	00113423          	sd	ra,8(sp)
    800009b8:	00300713          	li	a4,3
    800009bc:	00058413          	mv	s0,a1
    800009c0:	02e78463          	beq	a5,a4,800009e8 <simple_trap+0x40>
    800009c4:	00600713          	li	a4,6
    800009c8:	06e78263          	beq	a5,a4,80000a2c <simple_trap+0x84>
    800009cc:	00200713          	li	a4,2
    800009d0:	02e78e63          	beq	a5,a4,80000a0c <simple_trap+0x64>
    800009d4:	00813083          	ld	ra,8(sp)
    800009d8:	00040513          	mv	a0,s0
    800009dc:	00013403          	ld	s0,0(sp)
    800009e0:	01010113          	addi	sp,sp,16
    800009e4:	00008067          	ret
    800009e8:	00002517          	auipc	a0,0x2
    800009ec:	6c050513          	addi	a0,a0,1728 # 800030a8 <dy.1313+0x368>
    800009f0:	4c0010ef          	jal	ra,80001eb0 <printf>
    800009f4:	165000ef          	jal	ra,80001358 <read_key>
    800009f8:	00813083          	ld	ra,8(sp)
    800009fc:	00040513          	mv	a0,s0
    80000a00:	00013403          	ld	s0,0(sp)
    80000a04:	01010113          	addi	sp,sp,16
    80000a08:	00008067          	ret
    80000a0c:	00002517          	auipc	a0,0x2
    80000a10:	69450513          	addi	a0,a0,1684 # 800030a0 <dy.1313+0x360>
    80000a14:	49c010ef          	jal	ra,80001eb0 <printf>
    80000a18:	00813083          	ld	ra,8(sp)
    80000a1c:	00040513          	mv	a0,s0
    80000a20:	00013403          	ld	s0,0(sp)
    80000a24:	01010113          	addi	sp,sp,16
    80000a28:	00008067          	ret
    80000a2c:	00002517          	auipc	a0,0x2
    80000a30:	68450513          	addi	a0,a0,1668 # 800030b0 <dy.1313+0x370>
    80000a34:	47c010ef          	jal	ra,80001eb0 <printf>
    80000a38:	00813083          	ld	ra,8(sp)
    80000a3c:	00040513          	mv	a0,s0
    80000a40:	00013403          	ld	s0,0(sp)
    80000a44:	01010113          	addi	sp,sp,16
    80000a48:	00008067          	ret

0000000080000a4c <hello_intr>:
    80000a4c:	fe010113          	addi	sp,sp,-32
    80000a50:	00002517          	auipc	a0,0x2
    80000a54:	0e850513          	addi	a0,a0,232 # 80002b38 <tests+0x800>
    80000a58:	00113c23          	sd	ra,24(sp)
    80000a5c:	00813823          	sd	s0,16(sp)
    80000a60:	450010ef          	jal	ra,80001eb0 <printf>
    80000a64:	00002517          	auipc	a0,0x2
    80000a68:	65450513          	addi	a0,a0,1620 # 800030b8 <dy.1313+0x378>
    80000a6c:	444010ef          	jal	ra,80001eb0 <printf>
    80000a70:	00100513          	li	a0,1
    80000a74:	00989437          	lui	s0,0x989
    80000a78:	065000ef          	jal	ra,800012dc <_intr_write>
    80000a7c:	67f40413          	addi	s0,s0,1663 # 98967f <_start-0x7f676981>
    80000a80:	00012623          	sw	zero,12(sp)
    80000a84:	00c12783          	lw	a5,12(sp)
    80000a88:	0007879b          	sext.w	a5,a5
    80000a8c:	00f44e63          	blt	s0,a5,80000aa8 <hello_intr+0x5c>
    80000a90:	00c12783          	lw	a5,12(sp)
    80000a94:	0017879b          	addiw	a5,a5,1
    80000a98:	00f12623          	sw	a5,12(sp)
    80000a9c:	00c12783          	lw	a5,12(sp)
    80000aa0:	0007879b          	sext.w	a5,a5
    80000aa4:	fef456e3          	bge	s0,a5,80000a90 <hello_intr+0x44>
    80000aa8:	031000ef          	jal	ra,800012d8 <_yield>
    80000aac:	fd5ff06f          	j	80000a80 <hello_intr+0x34>

0000000080000ab0 <simple_pgalloc>:
    80000ab0:	00015617          	auipc	a2,0x15
    80000ab4:	17060613          	addi	a2,a2,368 # 80015c20 <st>
    80000ab8:	00063683          	ld	a3,0(a2)
    80000abc:	00069663          	bnez	a3,80000ac8 <simple_pgalloc+0x18>
    80000ac0:	00011697          	auipc	a3,0x11
    80000ac4:	f206b683          	ld	a3,-224(a3) # 800119e0 <_heap>
    80000ac8:	02a6f7b3          	remu	a5,a3,a0
    80000acc:	00078c63          	beqz	a5,80000ae4 <simple_pgalloc+0x34>
    80000ad0:	00168793          	addi	a5,a3,1
    80000ad4:	02a7f733          	remu	a4,a5,a0
    80000ad8:	00078693          	mv	a3,a5
    80000adc:	00178793          	addi	a5,a5,1
    80000ae0:	fe071ae3          	bnez	a4,80000ad4 <simple_pgalloc+0x24>
    80000ae4:	00d50533          	add	a0,a0,a3
    80000ae8:	00a63023          	sd	a0,0(a2)
    80000aec:	00068513          	mv	a0,a3
    80000af0:	00008067          	ret

0000000080000af4 <simple_pgfree>:
    80000af4:	00008067          	ret

0000000080000af8 <vm_handler>:
    80000af8:	00052783          	lw	a5,0(a0)
    80000afc:	fe010113          	addi	sp,sp,-32
    80000b00:	00813823          	sd	s0,16(sp)
    80000b04:	00113c23          	sd	ra,24(sp)
    80000b08:	00500713          	li	a4,5
    80000b0c:	00058413          	mv	s0,a1
    80000b10:	0ce78a63          	beq	a5,a4,80000be4 <vm_handler+0xec>
    80000b14:	08f74063          	blt	a4,a5,80000b94 <vm_handler+0x9c>
    80000b18:	00400713          	li	a4,4
    80000b1c:	0ae79063          	bne	a5,a4,80000bbc <vm_handler+0xc4>
    80000b20:	00853783          	ld	a5,8(a0)
    80000b24:	01053583          	ld	a1,16(a0)
    80000b28:	00002617          	auipc	a2,0x2
    80000b2c:	5b860613          	addi	a2,a2,1464 # 800030e0 <dy.1313+0x3a0>
    80000b30:	0017f713          	andi	a4,a5,1
    80000b34:	14070263          	beqz	a4,80000c78 <vm_handler+0x180>
    80000b38:	0027f713          	andi	a4,a5,2
    80000b3c:	00002697          	auipc	a3,0x2
    80000b40:	5b468693          	addi	a3,a3,1460 # 800030f0 <dy.1313+0x3b0>
    80000b44:	10070c63          	beqz	a4,80000c5c <vm_handler+0x164>
    80000b48:	0047f793          	andi	a5,a5,4
    80000b4c:	00002717          	auipc	a4,0x2
    80000b50:	5b470713          	addi	a4,a4,1460 # 80003100 <dy.1313+0x3c0>
    80000b54:	0e078863          	beqz	a5,80000c44 <vm_handler+0x14c>
    80000b58:	00002517          	auipc	a0,0x2
    80000b5c:	5d850513          	addi	a0,a0,1496 # 80003130 <dy.1313+0x3f0>
    80000b60:	350010ef          	jal	ra,80001eb0 <printf>
    80000b64:	00011797          	auipc	a5,0x11
    80000b68:	e747a783          	lw	a5,-396(a5) # 800119d8 <first_trap>
    80000b6c:	00078a63          	beqz	a5,80000b80 <vm_handler+0x88>
    80000b70:	00011797          	auipc	a5,0x11
    80000b74:	e607a423          	sw	zero,-408(a5) # 800119d8 <first_trap>
    80000b78:	00015417          	auipc	s0,0x15
    80000b7c:	0b043403          	ld	s0,176(s0) # 80015c28 <uctx>
    80000b80:	01813083          	ld	ra,24(sp)
    80000b84:	00040513          	mv	a0,s0
    80000b88:	01013403          	ld	s0,16(sp)
    80000b8c:	02010113          	addi	sp,sp,32
    80000b90:	00008067          	ret
    80000b94:	00600713          	li	a4,6
    80000b98:	02e79663          	bne	a5,a4,80000bc4 <vm_handler+0xcc>
    80000b9c:	00011797          	auipc	a5,0x11
    80000ba0:	e3c7a783          	lw	a5,-452(a5) # 800119d8 <first_trap>
    80000ba4:	fc078ee3          	beqz	a5,80000b80 <vm_handler+0x88>
    80000ba8:	00011797          	auipc	a5,0x11
    80000bac:	e207a823          	sw	zero,-464(a5) # 800119d8 <first_trap>
    80000bb0:	00015417          	auipc	s0,0x15
    80000bb4:	07843403          	ld	s0,120(s0) # 80015c28 <uctx>
    80000bb8:	fc9ff06f          	j	80000b80 <vm_handler+0x88>
    80000bbc:	00100713          	li	a4,1
    80000bc0:	06f74863          	blt	a4,a5,80000c30 <vm_handler+0x138>
    80000bc4:	02800613          	li	a2,40
    80000bc8:	00002597          	auipc	a1,0x2
    80000bcc:	58058593          	addi	a1,a1,1408 # 80003148 <dy.1313+0x408>
    80000bd0:	00002517          	auipc	a0,0x2
    80000bd4:	13050513          	addi	a0,a0,304 # 80002d00 <tests+0x9c8>
    80000bd8:	2d8010ef          	jal	ra,80001eb0 <printf>
    80000bdc:	00100513          	li	a0,1
    80000be0:	41c000ef          	jal	ra,80000ffc <_halt>
    80000be4:	00100513          	li	a0,1
    80000be8:	6f4000ef          	jal	ra,800012dc <_intr_write>
    80000bec:	00012623          	sw	zero,12(sp)
    80000bf0:	00c12783          	lw	a5,12(sp)
    80000bf4:	000f4737          	lui	a4,0xf4
    80000bf8:	23f70713          	addi	a4,a4,575 # f423f <_start-0x7ff0bdc1>
    80000bfc:	0007879b          	sext.w	a5,a5
    80000c00:	00f74e63          	blt	a4,a5,80000c1c <vm_handler+0x124>
    80000c04:	00c12783          	lw	a5,12(sp)
    80000c08:	0017879b          	addiw	a5,a5,1
    80000c0c:	00f12623          	sw	a5,12(sp)
    80000c10:	00c12783          	lw	a5,12(sp)
    80000c14:	0007879b          	sext.w	a5,a5
    80000c18:	fef756e3          	bge	a4,a5,80000c04 <vm_handler+0x10c>
    80000c1c:	00043583          	ld	a1,0(s0)
    80000c20:	00002517          	auipc	a0,0x2
    80000c24:	52050513          	addi	a0,a0,1312 # 80003140 <dy.1313+0x400>
    80000c28:	288010ef          	jal	ra,80001eb0 <printf>
    80000c2c:	f71ff06f          	j	80000b9c <vm_handler+0xa4>
    80000c30:	01853583          	ld	a1,24(a0)
    80000c34:	00002517          	auipc	a0,0x2
    80000c38:	4dc50513          	addi	a0,a0,1244 # 80003110 <dy.1313+0x3d0>
    80000c3c:	274010ef          	jal	ra,80001eb0 <printf>
    80000c40:	f5dff06f          	j	80000b9c <vm_handler+0xa4>
    80000c44:	00002717          	auipc	a4,0x2
    80000c48:	13470713          	addi	a4,a4,308 # 80002d78 <dy.1313+0x38>
    80000c4c:	00002517          	auipc	a0,0x2
    80000c50:	4e450513          	addi	a0,a0,1252 # 80003130 <dy.1313+0x3f0>
    80000c54:	25c010ef          	jal	ra,80001eb0 <printf>
    80000c58:	f0dff06f          	j	80000b64 <vm_handler+0x6c>
    80000c5c:	0047f793          	andi	a5,a5,4
    80000c60:	00002697          	auipc	a3,0x2
    80000c64:	11868693          	addi	a3,a3,280 # 80002d78 <dy.1313+0x38>
    80000c68:	00002717          	auipc	a4,0x2
    80000c6c:	49870713          	addi	a4,a4,1176 # 80003100 <dy.1313+0x3c0>
    80000c70:	ee0794e3          	bnez	a5,80000b58 <vm_handler+0x60>
    80000c74:	fd1ff06f          	j	80000c44 <vm_handler+0x14c>
    80000c78:	0027f713          	andi	a4,a5,2
    80000c7c:	00002617          	auipc	a2,0x2
    80000c80:	0fc60613          	addi	a2,a2,252 # 80002d78 <dy.1313+0x38>
    80000c84:	00002697          	auipc	a3,0x2
    80000c88:	46c68693          	addi	a3,a3,1132 # 800030f0 <dy.1313+0x3b0>
    80000c8c:	ea071ee3          	bnez	a4,80000b48 <vm_handler+0x50>
    80000c90:	fcdff06f          	j	80000c5c <vm_handler+0x164>

0000000080000c94 <vm_test>:
    80000c94:	fd010113          	addi	sp,sp,-48
    80000c98:	00300613          	li	a2,3
    80000c9c:	00002597          	auipc	a1,0x2
    80000ca0:	4e458593          	addi	a1,a1,1252 # 80003180 <dy.1313+0x440>
    80000ca4:	00002517          	auipc	a0,0x2
    80000ca8:	4e450513          	addi	a0,a0,1252 # 80003188 <dy.1313+0x448>
    80000cac:	02113423          	sd	ra,40(sp)
    80000cb0:	02813023          	sd	s0,32(sp)
    80000cb4:	00913c23          	sd	s1,24(sp)
    80000cb8:	01213823          	sd	s2,16(sp)
    80000cbc:	2ac010ef          	jal	ra,80001f68 <strncmp>
    80000cc0:	00050e63          	beqz	a0,80000cdc <vm_test+0x48>
    80000cc4:	00002597          	auipc	a1,0x2
    80000cc8:	4cc58593          	addi	a1,a1,1228 # 80003190 <dy.1313+0x450>
    80000ccc:	00002517          	auipc	a0,0x2
    80000cd0:	4bc50513          	addi	a0,a0,1212 # 80003188 <dy.1313+0x448>
    80000cd4:	258010ef          	jal	ra,80001f2c <strcmp>
    80000cd8:	10051663          	bnez	a0,80000de4 <vm_test+0x150>
    80000cdc:	00014917          	auipc	s2,0x14
    80000ce0:	f1490913          	addi	s2,s2,-236 # 80014bf0 <prot>
    80000ce4:	00090513          	mv	a0,s2
    80000ce8:	600000ef          	jal	ra,800012e8 <_protect>
    80000cec:	01093603          	ld	a2,16(s2)
    80000cf0:	00893583          	ld	a1,8(s2)
    80000cf4:	00002517          	auipc	a0,0x2
    80000cf8:	4c450513          	addi	a0,a0,1220 # 800031b8 <dy.1313+0x478>
    80000cfc:	1b4010ef          	jal	ra,80001eb0 <printf>
    80000d00:	00893783          	ld	a5,8(s2)
    80000d04:	01093483          	ld	s1,16(s2)
    80000d08:	00015697          	auipc	a3,0x15
    80000d0c:	f1868693          	addi	a3,a3,-232 # 80015c20 <st>
    80000d10:	0006b403          	ld	s0,0(a3)
    80000d14:	40f484b3          	sub	s1,s1,a5
    80000d18:	0014d493          	srli	s1,s1,0x1
    80000d1c:	00093603          	ld	a2,0(s2)
    80000d20:	00f484b3          	add	s1,s1,a5
    80000d24:	0a040a63          	beqz	s0,80000dd8 <vm_test+0x144>
    80000d28:	02c477b3          	remu	a5,s0,a2
    80000d2c:	00078c63          	beqz	a5,80000d44 <vm_test+0xb0>
    80000d30:	00140793          	addi	a5,s0,1
    80000d34:	02c7f733          	remu	a4,a5,a2
    80000d38:	00078413          	mv	s0,a5
    80000d3c:	00178793          	addi	a5,a5,1
    80000d40:	fe071ae3          	bnez	a4,80000d34 <vm_test+0xa0>
    80000d44:	008607b3          	add	a5,a2,s0
    80000d48:	00011597          	auipc	a1,0x11
    80000d4c:	c8058593          	addi	a1,a1,-896 # 800119c8 <code>
    80000d50:	00f00613          	li	a2,15
    80000d54:	00040513          	mv	a0,s0
    80000d58:	00f6b023          	sd	a5,0(a3)
    80000d5c:	25c010ef          	jal	ra,80001fb8 <memcpy>
    80000d60:	00e00693          	li	a3,14
    80000d64:	00040613          	mv	a2,s0
    80000d68:	00048593          	mv	a1,s1
    80000d6c:	00014517          	auipc	a0,0x14
    80000d70:	e8450513          	addi	a0,a0,-380 # 80014bf0 <prot>
    80000d74:	578000ef          	jal	ra,800012ec <_map>
    80000d78:	00040613          	mv	a2,s0
    80000d7c:	00048593          	mv	a1,s1
    80000d80:	00002517          	auipc	a0,0x2
    80000d84:	46050513          	addi	a0,a0,1120 # 800031e0 <dy.1313+0x4a0>
    80000d88:	128010ef          	jal	ra,80001eb0 <printf>
    80000d8c:	00048693          	mv	a3,s1
    80000d90:	00014597          	auipc	a1,0x14
    80000d94:	e8058593          	addi	a1,a1,-384 # 80014c10 <stack.1305>
    80000d98:	00015617          	auipc	a2,0x15
    80000d9c:	e7860613          	addi	a2,a2,-392 # 80015c10 <entry>
    80000da0:	00014517          	auipc	a0,0x14
    80000da4:	e5050513          	addi	a0,a0,-432 # 80014bf0 <prot>
    80000da8:	548000ef          	jal	ra,800012f0 <_ucontext>
    80000dac:	00050793          	mv	a5,a0
    80000db0:	00100513          	li	a0,1
    80000db4:	00015717          	auipc	a4,0x15
    80000db8:	e6f73a23          	sd	a5,-396(a4) # 80015c28 <uctx>
    80000dbc:	520000ef          	jal	ra,800012dc <_intr_write>
    80000dc0:	02013403          	ld	s0,32(sp)
    80000dc4:	02813083          	ld	ra,40(sp)
    80000dc8:	01813483          	ld	s1,24(sp)
    80000dcc:	01013903          	ld	s2,16(sp)
    80000dd0:	03010113          	addi	sp,sp,48
    80000dd4:	5040006f          	j	800012d8 <_yield>
    80000dd8:	00011417          	auipc	s0,0x11
    80000ddc:	c0843403          	ld	s0,-1016(s0) # 800119e0 <_heap>
    80000de0:	f49ff06f          	j	80000d28 <vm_test+0x94>
    80000de4:	02013403          	ld	s0,32(sp)
    80000de8:	02813083          	ld	ra,40(sp)
    80000dec:	01813483          	ld	s1,24(sp)
    80000df0:	01013903          	ld	s2,16(sp)
    80000df4:	00002517          	auipc	a0,0x2
    80000df8:	3a450513          	addi	a0,a0,932 # 80003198 <dy.1313+0x458>
    80000dfc:	03010113          	addi	sp,sp,48
    80000e00:	0b00106f          	j	80001eb0 <printf>

0000000080000e04 <mp_print>:
    80000e04:	ff010113          	addi	sp,sp,-16
    80000e08:	00813023          	sd	s0,0(sp)
    80000e0c:	00113423          	sd	ra,8(sp)
    80000e10:	00002417          	auipc	s0,0x2
    80000e14:	40040413          	addi	s0,s0,1024 # 80003210 <dy.1313+0x4d0>
    80000e18:	4f0000ef          	jal	ra,80001308 <_cpu>
    80000e1c:	00050593          	mv	a1,a0
    80000e20:	00040513          	mv	a0,s0
    80000e24:	08c010ef          	jal	ra,80001eb0 <printf>
    80000e28:	ff1ff06f          	j	80000e18 <mp_print+0x14>

Disassembly of section .text.startup:

0000000080000e2c <main>:
    80000e2c:	fd010113          	addi	sp,sp,-48
    80000e30:	02113423          	sd	ra,40(sp)
    80000e34:	02813023          	sd	s0,32(sp)
    80000e38:	00913c23          	sd	s1,24(sp)
    80000e3c:	01213823          	sd	s2,16(sp)
    80000e40:	01313423          	sd	s3,8(sp)
    80000e44:	00054783          	lbu	a5,0(a0)
    80000e48:	01500713          	li	a4,21
    80000e4c:	f9f7879b          	addiw	a5,a5,-97
    80000e50:	0ff7f793          	andi	a5,a5,255
    80000e54:	02f76063          	bltu	a4,a5,80000e74 <main+0x48>
    80000e58:	00001717          	auipc	a4,0x1
    80000e5c:	48870713          	addi	a4,a4,1160 # 800022e0 <memcpy+0x328>
    80000e60:	00279793          	slli	a5,a5,0x2
    80000e64:	00e787b3          	add	a5,a5,a4
    80000e68:	0007a783          	lw	a5,0(a5)
    80000e6c:	00e787b3          	add	a5,a5,a4
    80000e70:	00078067          	jr	a5
    80000e74:	00001517          	auipc	a0,0x1
    80000e78:	37450513          	addi	a0,a0,884 # 800021e8 <memcpy+0x230>
    80000e7c:	034010ef          	jal	ra,80001eb0 <printf>
    80000e80:	00001497          	auipc	s1,0x1
    80000e84:	4c048493          	addi	s1,s1,1216 # 80002340 <tests+0x8>
    80000e88:	00000413          	li	s0,0
    80000e8c:	10000913          	li	s2,256
    80000e90:	00001997          	auipc	s3,0x1
    80000e94:	37898993          	addi	s3,s3,888 # 80002208 <memcpy+0x250>
    80000e98:	0014041b          	addiw	s0,s0,1
    80000e9c:	03240c63          	beq	s0,s2,80000ed4 <main+0xa8>
    80000ea0:	0004b603          	ld	a2,0(s1)
    80000ea4:	00060863          	beqz	a2,80000eb4 <main+0x88>
    80000ea8:	00040593          	mv	a1,s0
    80000eac:	00098513          	mv	a0,s3
    80000eb0:	000010ef          	jal	ra,80001eb0 <printf>
    80000eb4:	00848493          	addi	s1,s1,8
    80000eb8:	fe1ff06f          	j	80000e98 <main+0x6c>
    80000ebc:	fffff797          	auipc	a5,0xfffff
    80000ec0:	1a078793          	addi	a5,a5,416 # 8000005c <audio_test>
    80000ec4:	00015717          	auipc	a4,0x15
    80000ec8:	d4f73623          	sd	a5,-692(a4) # 80015c10 <entry>
    80000ecc:	1c8000ef          	jal	ra,80001094 <_ioe_init>
    80000ed0:	98cff0ef          	jal	ra,8000005c <audio_test>
    80000ed4:	02813083          	ld	ra,40(sp)
    80000ed8:	02013403          	ld	s0,32(sp)
    80000edc:	01813483          	ld	s1,24(sp)
    80000ee0:	01013903          	ld	s2,16(sp)
    80000ee4:	00813983          	ld	s3,8(sp)
    80000ee8:	00000513          	li	a0,0
    80000eec:	03010113          	addi	sp,sp,48
    80000ef0:	00008067          	ret
    80000ef4:	fffff797          	auipc	a5,0xfffff
    80000ef8:	28c78793          	addi	a5,a5,652 # 80000180 <devscan>
    80000efc:	00015717          	auipc	a4,0x15
    80000f00:	d0f73a23          	sd	a5,-748(a4) # 80015c10 <entry>
    80000f04:	190000ef          	jal	ra,80001094 <_ioe_init>
    80000f08:	a78ff0ef          	jal	ra,80000180 <devscan>
    80000f0c:	fc9ff06f          	j	80000ed4 <main+0xa8>
    80000f10:	fffff797          	auipc	a5,0xfffff
    80000f14:	10078793          	addi	a5,a5,256 # 80000010 <hello>
    80000f18:	00015717          	auipc	a4,0x15
    80000f1c:	cef73c23          	sd	a5,-776(a4) # 80015c10 <entry>
    80000f20:	8f0ff0ef          	jal	ra,80000010 <hello>
    80000f24:	fb1ff06f          	j	80000ed4 <main+0xa8>
    80000f28:	00000797          	auipc	a5,0x0
    80000f2c:	b2478793          	addi	a5,a5,-1244 # 80000a4c <hello_intr>
    80000f30:	00015717          	auipc	a4,0x15
    80000f34:	cef73023          	sd	a5,-800(a4) # 80015c10 <entry>
    80000f38:	15c000ef          	jal	ra,80001094 <_ioe_init>
    80000f3c:	00000517          	auipc	a0,0x0
    80000f40:	a6c50513          	addi	a0,a0,-1428 # 800009a8 <simple_trap>
    80000f44:	38c000ef          	jal	ra,800012d0 <_cte_init>
    80000f48:	b05ff0ef          	jal	ra,80000a4c <hello_intr>
    80000f4c:	f89ff06f          	j	80000ed4 <main+0xa8>
    80000f50:	00000797          	auipc	a5,0x0
    80000f54:	92878793          	addi	a5,a5,-1752 # 80000878 <keyboard_test>
    80000f58:	00015717          	auipc	a4,0x15
    80000f5c:	caf73c23          	sd	a5,-840(a4) # 80015c10 <entry>
    80000f60:	134000ef          	jal	ra,80001094 <_ioe_init>
    80000f64:	915ff0ef          	jal	ra,80000878 <keyboard_test>
    80000f68:	f6dff06f          	j	80000ed4 <main+0xa8>
    80000f6c:	00000517          	auipc	a0,0x0
    80000f70:	e9850513          	addi	a0,a0,-360 # 80000e04 <mp_print>
    80000f74:	00015797          	auipc	a5,0x15
    80000f78:	c8a7be23          	sd	a0,-868(a5) # 80015c10 <entry>
    80000f7c:	384000ef          	jal	ra,80001300 <_mpe_init>
    80000f80:	e85ff0ef          	jal	ra,80000e04 <mp_print>
    80000f84:	f51ff06f          	j	80000ed4 <main+0xa8>
    80000f88:	00000797          	auipc	a5,0x0
    80000f8c:	d0c78793          	addi	a5,a5,-756 # 80000c94 <vm_test>
    80000f90:	00000517          	auipc	a0,0x0
    80000f94:	b6850513          	addi	a0,a0,-1176 # 80000af8 <vm_handler>
    80000f98:	00015717          	auipc	a4,0x15
    80000f9c:	c6f73c23          	sd	a5,-904(a4) # 80015c10 <entry>
    80000fa0:	330000ef          	jal	ra,800012d0 <_cte_init>
    80000fa4:	00000597          	auipc	a1,0x0
    80000fa8:	b5058593          	addi	a1,a1,-1200 # 80000af4 <simple_pgfree>
    80000fac:	00000517          	auipc	a0,0x0
    80000fb0:	b0450513          	addi	a0,a0,-1276 # 80000ab0 <simple_pgalloc>
    80000fb4:	32c000ef          	jal	ra,800012e0 <_vme_init>
    80000fb8:	cddff0ef          	jal	ra,80000c94 <vm_test>
    80000fbc:	f19ff06f          	j	80000ed4 <main+0xa8>
    80000fc0:	00000797          	auipc	a5,0x0
    80000fc4:	94c78793          	addi	a5,a5,-1716 # 8000090c <rtc_test>
    80000fc8:	00015717          	auipc	a4,0x15
    80000fcc:	c4f73423          	sd	a5,-952(a4) # 80015c10 <entry>
    80000fd0:	0c4000ef          	jal	ra,80001094 <_ioe_init>
    80000fd4:	939ff0ef          	jal	ra,8000090c <rtc_test>
    80000fd8:	efdff06f          	j	80000ed4 <main+0xa8>
    80000fdc:	00000797          	auipc	a5,0x0
    80000fe0:	80078793          	addi	a5,a5,-2048 # 800007dc <video_test>
    80000fe4:	00015717          	auipc	a4,0x15
    80000fe8:	c2f73623          	sd	a5,-980(a4) # 80015c10 <entry>
    80000fec:	0a8000ef          	jal	ra,80001094 <_ioe_init>
    80000ff0:	fecff0ef          	jal	ra,800007dc <video_test>
    80000ff4:	ee1ff06f          	j	80000ed4 <main+0xa8>

Disassembly of section .text._putc:

0000000080000ff8 <_putc>:
    80000ff8:	0540006f          	j	8000104c <__am_uartlite_putchar>

Disassembly of section .text._halt:

0000000080000ffc <_halt>:
    80000ffc:	ff010113          	addi	sp,sp,-16
    80001000:	00113423          	sd	ra,8(sp)
    80001004:	00050593          	mv	a1,a0
    80001008:	00050513          	mv	a0,a0
    8000100c:	0005006b          	0x5006b
    80001010:	00002517          	auipc	a0,0x2
    80001014:	20850513          	addi	a0,a0,520 # 80003218 <dy.1313+0x4d8>
    80001018:	699000ef          	jal	ra,80001eb0 <printf>
    8000101c:	0000006f          	j	8000101c <_halt+0x20>

Disassembly of section .text._trm_init:

0000000080001020 <_trm_init>:
    80001020:	ff010113          	addi	sp,sp,-16
    80001024:	00113423          	sd	ra,8(sp)
    80001028:	014000ef          	jal	ra,8000103c <__am_init_uartlite>
    8000102c:	00002517          	auipc	a0,0x2
    80001030:	20150513          	addi	a0,a0,513 # 8000322d <__am_mainargs>
    80001034:	df9ff0ef          	jal	ra,80000e2c <main>
    80001038:	fc5ff0ef          	jal	ra,80000ffc <_halt>

Disassembly of section .text.__am_init_uartlite:

000000008000103c <__am_init_uartlite>:
    8000103c:	406007b7          	lui	a5,0x40600
    80001040:	00300713          	li	a4,3
    80001044:	00e78623          	sb	a4,12(a5) # 4060000c <_start-0x3f9ffff4>
    80001048:	00008067          	ret

Disassembly of section .text.__am_uartlite_putchar:

000000008000104c <__am_uartlite_putchar>:
    8000104c:	ff010113          	addi	sp,sp,-16
    80001050:	00813023          	sd	s0,0(sp)
    80001054:	00113423          	sd	ra,8(sp)
    80001058:	00a00793          	li	a5,10
    8000105c:	00050413          	mv	s0,a0
    80001060:	02f50463          	beq	a0,a5,80001088 <__am_uartlite_putchar+0x3c>
    80001064:	40600737          	lui	a4,0x40600
    80001068:	00874783          	lbu	a5,8(a4) # 40600008 <_start-0x3f9ffff8>
    8000106c:	0087f793          	andi	a5,a5,8
    80001070:	fe079ce3          	bnez	a5,80001068 <__am_uartlite_putchar+0x1c>
    80001074:	00870223          	sb	s0,4(a4)
    80001078:	00813083          	ld	ra,8(sp)
    8000107c:	00013403          	ld	s0,0(sp)
    80001080:	01010113          	addi	sp,sp,16
    80001084:	00008067          	ret
    80001088:	00d00513          	li	a0,13
    8000108c:	fc1ff0ef          	jal	ra,8000104c <__am_uartlite_putchar>
    80001090:	fd5ff06f          	j	80001064 <__am_uartlite_putchar+0x18>

Disassembly of section .text._ioe_init:

0000000080001094 <_ioe_init>:
    80001094:	ff010113          	addi	sp,sp,-16
    80001098:	00113423          	sd	ra,8(sp)
    8000109c:	21c000ef          	jal	ra,800012b8 <__am_vga_init>
    800010a0:	174000ef          	jal	ra,80001214 <__am_timer_init>
    800010a4:	218000ef          	jal	ra,800012bc <__am_audio_init>
    800010a8:	00813083          	ld	ra,8(sp)
    800010ac:	00000513          	li	a0,0
    800010b0:	01010113          	addi	sp,sp,16
    800010b4:	00008067          	ret

Disassembly of section .text._io_read:

00000000800010b8 <_io_read>:
    800010b8:	0000b7b7          	lui	a5,0xb
    800010bc:	00050713          	mv	a4,a0
    800010c0:	c0478813          	addi	a6,a5,-1020 # ac04 <_start-0x7fff53fc>
    800010c4:	00058513          	mv	a0,a1
    800010c8:	00060593          	mv	a1,a2
    800010cc:	00068613          	mv	a2,a3
    800010d0:	03070863          	beq	a4,a6,80001100 <_io_read+0x48>
    800010d4:	00e86c63          	bltu	a6,a4,800010ec <_io_read+0x34>
    800010d8:	c0278693          	addi	a3,a5,-1022
    800010dc:	02d70463          	beq	a4,a3,80001104 <_io_read+0x4c>
    800010e0:	c0378793          	addi	a5,a5,-1021
    800010e4:	00f71a63          	bne	a4,a5,800010f8 <_io_read+0x40>
    800010e8:	0540006f          	j	8000113c <__am_timer_read>
    800010ec:	c0778793          	addi	a5,a5,-1017
    800010f0:	00f71463          	bne	a4,a5,800010f8 <_io_read+0x40>
    800010f4:	1d40006f          	j	800012c8 <__am_audio_read>
    800010f8:	00000513          	li	a0,0
    800010fc:	00008067          	ret
    80001100:	1700006f          	j	80001270 <__am_video_read>
    80001104:	1340006f          	j	80001238 <__am_input_read>

Disassembly of section .text._io_write:

0000000080001108 <_io_write>:
    80001108:	0000b7b7          	lui	a5,0xb
    8000110c:	00050713          	mv	a4,a0
    80001110:	c0478813          	addi	a6,a5,-1020 # ac04 <_start-0x7fff53fc>
    80001114:	00058513          	mv	a0,a1
    80001118:	00060593          	mv	a1,a2
    8000111c:	00068613          	mv	a2,a3
    80001120:	01070a63          	beq	a4,a6,80001134 <_io_write+0x2c>
    80001124:	c0778793          	addi	a5,a5,-1017
    80001128:	00f70863          	beq	a4,a5,80001138 <_io_write+0x30>
    8000112c:	00000513          	li	a0,0
    80001130:	00008067          	ret
    80001134:	17c0006f          	j	800012b0 <__am_video_write>
    80001138:	1880006f          	j	800012c0 <__am_audio_write>

Disassembly of section .text.__am_timer_read:

000000008000113c <__am_timer_read>:
    8000113c:	00100793          	li	a5,1
    80001140:	08f50263          	beq	a0,a5,800011c4 <__am_timer_read+0x88>
    80001144:	00200793          	li	a5,2
    80001148:	06f51a63          	bne	a0,a5,800011bc <__am_timer_read+0x80>
    8000114c:	fe200793          	li	a5,-30
    80001150:	00f58023          	sb	a5,0(a1)
    80001154:	00700793          	li	a5,7
    80001158:	00058a23          	sb	zero,20(a1)
    8000115c:	00058aa3          	sb	zero,21(a1)
    80001160:	00058b23          	sb	zero,22(a1)
    80001164:	00058ba3          	sb	zero,23(a1)
    80001168:	00058823          	sb	zero,16(a1)
    8000116c:	000588a3          	sb	zero,17(a1)
    80001170:	00058923          	sb	zero,18(a1)
    80001174:	000589a3          	sb	zero,19(a1)
    80001178:	00058623          	sb	zero,12(a1)
    8000117c:	000586a3          	sb	zero,13(a1)
    80001180:	00058723          	sb	zero,14(a1)
    80001184:	000587a3          	sb	zero,15(a1)
    80001188:	00058423          	sb	zero,8(a1)
    8000118c:	000584a3          	sb	zero,9(a1)
    80001190:	00058523          	sb	zero,10(a1)
    80001194:	000585a3          	sb	zero,11(a1)
    80001198:	00058223          	sb	zero,4(a1)
    8000119c:	000582a3          	sb	zero,5(a1)
    800011a0:	00058323          	sb	zero,6(a1)
    800011a4:	000583a3          	sb	zero,7(a1)
    800011a8:	00f580a3          	sb	a5,1(a1)
    800011ac:	00058123          	sb	zero,2(a1)
    800011b0:	000581a3          	sb	zero,3(a1)
    800011b4:	01800513          	li	a0,24
    800011b8:	00008067          	ret
    800011bc:	00000513          	li	a0,0
    800011c0:	00008067          	ret
    800011c4:	3800c7b7          	lui	a5,0x3800c
    800011c8:	ff87b783          	ld	a5,-8(a5) # 3800bff8 <_start-0x47ff4008>
    800011cc:	3e800713          	li	a4,1000
    800011d0:	00058023          	sb	zero,0(a1)
    800011d4:	02e7d7b3          	divu	a5,a5,a4
    800011d8:	00015717          	auipc	a4,0x15
    800011dc:	a5873703          	ld	a4,-1448(a4) # 80015c30 <boot_time>
    800011e0:	000580a3          	sb	zero,1(a1)
    800011e4:	00058123          	sb	zero,2(a1)
    800011e8:	000581a3          	sb	zero,3(a1)
    800011ec:	00800513          	li	a0,8
    800011f0:	40e787bb          	subw	a5,a5,a4
    800011f4:	0087d61b          	srliw	a2,a5,0x8
    800011f8:	0107d69b          	srliw	a3,a5,0x10
    800011fc:	0187d71b          	srliw	a4,a5,0x18
    80001200:	00f58223          	sb	a5,4(a1)
    80001204:	00c582a3          	sb	a2,5(a1)
    80001208:	00d58323          	sb	a3,6(a1)
    8000120c:	00e583a3          	sb	a4,7(a1)
    80001210:	00008067          	ret

Disassembly of section .text.__am_timer_init:

0000000080001214 <__am_timer_init>:
    80001214:	3800c7b7          	lui	a5,0x3800c
    80001218:	ff87b783          	ld	a5,-8(a5) # 3800bff8 <_start-0x47ff4008>
    8000121c:	3e800713          	li	a4,1000
    80001220:	02e7d7b3          	divu	a5,a5,a4
    80001224:	02079793          	slli	a5,a5,0x20
    80001228:	0207d793          	srli	a5,a5,0x20
    8000122c:	00015717          	auipc	a4,0x15
    80001230:	a0f73223          	sd	a5,-1532(a4) # 80015c30 <boot_time>
    80001234:	00008067          	ret

Disassembly of section .text.__am_input_read:

0000000080001238 <__am_input_read>:
    80001238:	00100793          	li	a5,1
    8000123c:	00f50663          	beq	a0,a5,80001248 <__am_input_read+0x10>
    80001240:	00000513          	li	a0,0
    80001244:	00008067          	ret
    80001248:	00058023          	sb	zero,0(a1)
    8000124c:	000580a3          	sb	zero,1(a1)
    80001250:	00058123          	sb	zero,2(a1)
    80001254:	000581a3          	sb	zero,3(a1)
    80001258:	00058223          	sb	zero,4(a1)
    8000125c:	000582a3          	sb	zero,5(a1)
    80001260:	00058323          	sb	zero,6(a1)
    80001264:	000583a3          	sb	zero,7(a1)
    80001268:	00800513          	li	a0,8
    8000126c:	00008067          	ret

Disassembly of section .text.__am_video_read:

0000000080001270 <__am_video_read>:
    80001270:	00100793          	li	a5,1
    80001274:	00f50663          	beq	a0,a5,80001280 <__am_video_read+0x10>
    80001278:	00000513          	li	a0,0
    8000127c:	00008067          	ret
    80001280:	04000793          	li	a5,64
    80001284:	00f58023          	sb	a5,0(a1)
    80001288:	ff000793          	li	a5,-16
    8000128c:	00a580a3          	sb	a0,1(a1)
    80001290:	00058123          	sb	zero,2(a1)
    80001294:	000581a3          	sb	zero,3(a1)
    80001298:	00f58223          	sb	a5,4(a1)
    8000129c:	000582a3          	sb	zero,5(a1)
    800012a0:	00058323          	sb	zero,6(a1)
    800012a4:	000583a3          	sb	zero,7(a1)
    800012a8:	00800513          	li	a0,8
    800012ac:	00008067          	ret

Disassembly of section .text.__am_video_write:

00000000800012b0 <__am_video_write>:
    800012b0:	00000513          	li	a0,0
    800012b4:	00008067          	ret

Disassembly of section .text.__am_vga_init:

00000000800012b8 <__am_vga_init>:
    800012b8:	00008067          	ret

Disassembly of section .text.__am_audio_init:

00000000800012bc <__am_audio_init>:
    800012bc:	00008067          	ret

Disassembly of section .text.__am_audio_write:

00000000800012c0 <__am_audio_write>:
    800012c0:	00000513          	li	a0,0
    800012c4:	00008067          	ret

Disassembly of section .text.__am_audio_read:

00000000800012c8 <__am_audio_read>:
    800012c8:	00000513          	li	a0,0
    800012cc:	00008067          	ret

Disassembly of section .text._cte_init:

00000000800012d0 <_cte_init>:
    800012d0:	00000513          	li	a0,0
    800012d4:	00008067          	ret

Disassembly of section .text._yield:

00000000800012d8 <_yield>:
    800012d8:	00008067          	ret

Disassembly of section .text._intr_write:

00000000800012dc <_intr_write>:
    800012dc:	00008067          	ret

Disassembly of section .text._vme_init:

00000000800012e0 <_vme_init>:
    800012e0:	00000513          	li	a0,0
    800012e4:	00008067          	ret

Disassembly of section .text._protect:

00000000800012e8 <_protect>:
    800012e8:	00008067          	ret

Disassembly of section .text._map:

00000000800012ec <_map>:
    800012ec:	00008067          	ret

Disassembly of section .text._ucontext:

00000000800012f0 <_ucontext>:
    800012f0:	ff010113          	addi	sp,sp,-16
    800012f4:	00000513          	li	a0,0
    800012f8:	01010113          	addi	sp,sp,16
    800012fc:	00008067          	ret

Disassembly of section .text._mpe_init:

0000000080001300 <_mpe_init>:
    80001300:	00100513          	li	a0,1
    80001304:	00008067          	ret

Disassembly of section .text._cpu:

0000000080001308 <_cpu>:
    80001308:	00000513          	li	a0,0
    8000130c:	00008067          	ret

Disassembly of section .text.uptime:

0000000080001310 <uptime>:
    80001310:	fe010113          	addi	sp,sp,-32
    80001314:	0000b537          	lui	a0,0xb
    80001318:	00810613          	addi	a2,sp,8
    8000131c:	00800693          	li	a3,8
    80001320:	00100593          	li	a1,1
    80001324:	c0350513          	addi	a0,a0,-1021 # ac03 <_start-0x7fff53fd>
    80001328:	00113c23          	sd	ra,24(sp)
    8000132c:	d8dff0ef          	jal	ra,800010b8 <_io_read>
    80001330:	01813083          	ld	ra,24(sp)
    80001334:	00c12503          	lw	a0,12(sp)
    80001338:	02010113          	addi	sp,sp,32
    8000133c:	00008067          	ret

Disassembly of section .text.get_timeofday:

0000000080001340 <get_timeofday>:
    80001340:	00050613          	mv	a2,a0
    80001344:	0000b537          	lui	a0,0xb
    80001348:	01800693          	li	a3,24
    8000134c:	00200593          	li	a1,2
    80001350:	c0350513          	addi	a0,a0,-1021 # ac03 <_start-0x7fff53fd>
    80001354:	d65ff06f          	j	800010b8 <_io_read>

Disassembly of section .text.read_key:

0000000080001358 <read_key>:
    80001358:	fe010113          	addi	sp,sp,-32
    8000135c:	0000b537          	lui	a0,0xb
    80001360:	00800693          	li	a3,8
    80001364:	00810613          	addi	a2,sp,8
    80001368:	00100593          	li	a1,1
    8000136c:	c0250513          	addi	a0,a0,-1022 # ac02 <_start-0x7fff53fe>
    80001370:	00113c23          	sd	ra,24(sp)
    80001374:	d45ff0ef          	jal	ra,800010b8 <_io_read>
    80001378:	00812783          	lw	a5,8(sp)
    8000137c:	00c12503          	lw	a0,12(sp)
    80001380:	00078663          	beqz	a5,8000138c <read_key+0x34>
    80001384:	000087b7          	lui	a5,0x8
    80001388:	00f56533          	or	a0,a0,a5
    8000138c:	01813083          	ld	ra,24(sp)
    80001390:	02010113          	addi	sp,sp,32
    80001394:	00008067          	ret

Disassembly of section .text.draw_rect:

0000000080001398 <draw_rect>:
    80001398:	fd010113          	addi	sp,sp,-48
    8000139c:	00050813          	mv	a6,a0
    800013a0:	0000b537          	lui	a0,0xb
    800013a4:	00058313          	mv	t1,a1
    800013a8:	00060893          	mv	a7,a2
    800013ac:	00068793          	mv	a5,a3
    800013b0:	00010613          	mv	a2,sp
    800013b4:	01c00693          	li	a3,28
    800013b8:	00200593          	li	a1,2
    800013bc:	c0450513          	addi	a0,a0,-1020 # ac04 <_start-0x7fff53fc>
    800013c0:	02113423          	sd	ra,40(sp)
    800013c4:	00612023          	sw	t1,0(sp)
    800013c8:	01112223          	sw	a7,4(sp)
    800013cc:	01013423          	sd	a6,8(sp)
    800013d0:	00f12823          	sw	a5,16(sp)
    800013d4:	00e12a23          	sw	a4,20(sp)
    800013d8:	00012c23          	sw	zero,24(sp)
    800013dc:	d2dff0ef          	jal	ra,80001108 <_io_write>
    800013e0:	02813083          	ld	ra,40(sp)
    800013e4:	03010113          	addi	sp,sp,48
    800013e8:	00008067          	ret

Disassembly of section .text.draw_sync:

00000000800013ec <draw_sync>:
    800013ec:	fd010113          	addi	sp,sp,-48
    800013f0:	0000b537          	lui	a0,0xb
    800013f4:	00010613          	mv	a2,sp
    800013f8:	00100793          	li	a5,1
    800013fc:	01c00693          	li	a3,28
    80001400:	00200593          	li	a1,2
    80001404:	c0450513          	addi	a0,a0,-1020 # ac04 <_start-0x7fff53fc>
    80001408:	02113423          	sd	ra,40(sp)
    8000140c:	00013023          	sd	zero,0(sp)
    80001410:	00013423          	sd	zero,8(sp)
    80001414:	00013823          	sd	zero,16(sp)
    80001418:	00f12c23          	sw	a5,24(sp)
    8000141c:	cedff0ef          	jal	ra,80001108 <_io_write>
    80001420:	02813083          	ld	ra,40(sp)
    80001424:	03010113          	addi	sp,sp,48
    80001428:	00008067          	ret

Disassembly of section .text.screen_width:

000000008000142c <screen_width>:
    8000142c:	fe010113          	addi	sp,sp,-32
    80001430:	0000b537          	lui	a0,0xb
    80001434:	00810613          	addi	a2,sp,8
    80001438:	00800693          	li	a3,8
    8000143c:	00100593          	li	a1,1
    80001440:	c0450513          	addi	a0,a0,-1020 # ac04 <_start-0x7fff53fc>
    80001444:	00113c23          	sd	ra,24(sp)
    80001448:	c71ff0ef          	jal	ra,800010b8 <_io_read>
    8000144c:	01813083          	ld	ra,24(sp)
    80001450:	00812503          	lw	a0,8(sp)
    80001454:	02010113          	addi	sp,sp,32
    80001458:	00008067          	ret

Disassembly of section .text.screen_height:

000000008000145c <screen_height>:
    8000145c:	fe010113          	addi	sp,sp,-32
    80001460:	0000b537          	lui	a0,0xb
    80001464:	00810613          	addi	a2,sp,8
    80001468:	00800693          	li	a3,8
    8000146c:	00100593          	li	a1,1
    80001470:	c0450513          	addi	a0,a0,-1020 # ac04 <_start-0x7fff53fc>
    80001474:	00113c23          	sd	ra,24(sp)
    80001478:	c41ff0ef          	jal	ra,800010b8 <_io_read>
    8000147c:	01813083          	ld	ra,24(sp)
    80001480:	00c12503          	lw	a0,12(sp)
    80001484:	02010113          	addi	sp,sp,32
    80001488:	00008067          	ret

Disassembly of section .text.__putch:

000000008000148c <__putch>:
    8000148c:	08058c63          	beqz	a1,80001524 <__putch+0x98>
    80001490:	fd010113          	addi	sp,sp,-48
    80001494:	02813023          	sd	s0,32(sp)
    80001498:	00913c23          	sd	s1,24(sp)
    8000149c:	01213823          	sd	s2,16(sp)
    800014a0:	01313423          	sd	s3,8(sp)
    800014a4:	02113423          	sd	ra,40(sp)
    800014a8:	fff5849b          	addiw	s1,a1,-1
    800014ac:	00060413          	mv	s0,a2
    800014b0:	00050993          	mv	s3,a0
    800014b4:	fff00913          	li	s2,-1
    800014b8:	0280006f          	j	800014e0 <__putch+0x54>
    800014bc:	01843703          	ld	a4,24(s0)
    800014c0:	00e78663          	beq	a5,a4,800014cc <__putch+0x40>
    800014c4:	00d43823          	sd	a3,16(s0)
    800014c8:	01378023          	sb	s3,0(a5) # 8000 <_start-0x7fff8000>
    800014cc:	02043783          	ld	a5,32(s0)
    800014d0:	fff4849b          	addiw	s1,s1,-1
    800014d4:	00178793          	addi	a5,a5,1
    800014d8:	02f43023          	sd	a5,32(s0)
    800014dc:	03248663          	beq	s1,s2,80001508 <__putch+0x7c>
    800014e0:	01043783          	ld	a5,16(s0)
    800014e4:	00178693          	addi	a3,a5,1
    800014e8:	fc079ae3          	bnez	a5,800014bc <__putch+0x30>
    800014ec:	00098513          	mv	a0,s3
    800014f0:	b09ff0ef          	jal	ra,80000ff8 <_putc>
    800014f4:	02043783          	ld	a5,32(s0)
    800014f8:	fff4849b          	addiw	s1,s1,-1
    800014fc:	00178793          	addi	a5,a5,1
    80001500:	02f43023          	sd	a5,32(s0)
    80001504:	fd249ee3          	bne	s1,s2,800014e0 <__putch+0x54>
    80001508:	02813083          	ld	ra,40(sp)
    8000150c:	02013403          	ld	s0,32(sp)
    80001510:	01813483          	ld	s1,24(sp)
    80001514:	01013903          	ld	s2,16(sp)
    80001518:	00813983          	ld	s3,8(sp)
    8000151c:	03010113          	addi	sp,sp,48
    80001520:	00008067          	ret
    80001524:	00008067          	ret

Disassembly of section .text.vsnprintf_internal:

0000000080001528 <vsnprintf_internal>:
    80001528:	f1010113          	addi	sp,sp,-240
    8000152c:	0e813023          	sd	s0,224(sp)
    80001530:	0d413023          	sd	s4,192(sp)
    80001534:	0e113423          	sd	ra,232(sp)
    80001538:	0c913c23          	sd	s1,216(sp)
    8000153c:	0d213823          	sd	s2,208(sp)
    80001540:	0d313423          	sd	s3,200(sp)
    80001544:	0b513c23          	sd	s5,184(sp)
    80001548:	0b613823          	sd	s6,176(sp)
    8000154c:	0b713423          	sd	s7,168(sp)
    80001550:	0b813023          	sd	s8,160(sp)
    80001554:	09913c23          	sd	s9,152(sp)
    80001558:	09a13823          	sd	s10,144(sp)
    8000155c:	09b13423          	sd	s11,136(sp)
    80001560:	00013c23          	sd	zero,24(sp)
    80001564:	02013023          	sd	zero,32(sp)
    80001568:	02013c23          	sd	zero,56(sp)
    8000156c:	02a13423          	sd	a0,40(sp)
    80001570:	00060413          	mv	s0,a2
    80001574:	00068a13          	mv	s4,a3
    80001578:	00050663          	beqz	a0,80001584 <vsnprintf_internal+0x5c>
    8000157c:	00b50533          	add	a0,a0,a1
    80001580:	58058863          	beqz	a1,80001b10 <vsnprintf_internal+0x5e8>
    80001584:	02a13823          	sd	a0,48(sp)
    80001588:	00002917          	auipc	s2,0x2
    8000158c:	ca890913          	addi	s2,s2,-856 # 80003230 <__am_mainargs+0x3>
    80001590:	03900a93          	li	s5,57
    80001594:	00002997          	auipc	s3,0x2
    80001598:	e0c98993          	addi	s3,s3,-500 # 800033a0 <__am_mainargs+0x173>
    8000159c:	00044503          	lbu	a0,0(s0)
    800015a0:	02050263          	beqz	a0,800015c4 <vsnprintf_internal+0x9c>
    800015a4:	02500793          	li	a5,37
    800015a8:	00140413          	addi	s0,s0,1
    800015ac:	06f50263          	beq	a0,a5,80001610 <vsnprintf_internal+0xe8>
    800015b0:	01810613          	addi	a2,sp,24
    800015b4:	00100593          	li	a1,1
    800015b8:	ed5ff0ef          	jal	ra,8000148c <__putch>
    800015bc:	00044503          	lbu	a0,0(s0)
    800015c0:	fe0512e3          	bnez	a0,800015a4 <vsnprintf_internal+0x7c>
    800015c4:	02813783          	ld	a5,40(sp)
    800015c8:	00078463          	beqz	a5,800015d0 <vsnprintf_internal+0xa8>
    800015cc:	00078023          	sb	zero,0(a5)
    800015d0:	0e813083          	ld	ra,232(sp)
    800015d4:	0e013403          	ld	s0,224(sp)
    800015d8:	03812503          	lw	a0,56(sp)
    800015dc:	0d813483          	ld	s1,216(sp)
    800015e0:	0d013903          	ld	s2,208(sp)
    800015e4:	0c813983          	ld	s3,200(sp)
    800015e8:	0c013a03          	ld	s4,192(sp)
    800015ec:	0b813a83          	ld	s5,184(sp)
    800015f0:	0b013b03          	ld	s6,176(sp)
    800015f4:	0a813b83          	ld	s7,168(sp)
    800015f8:	0a013c03          	ld	s8,160(sp)
    800015fc:	09813c83          	ld	s9,152(sp)
    80001600:	09013d03          	ld	s10,144(sp)
    80001604:	08813d83          	ld	s11,136(sp)
    80001608:	0f010113          	addi	sp,sp,240
    8000160c:	00008067          	ret
    80001610:	02000793          	li	a5,32
    80001614:	00f10e23          	sb	a5,28(sp)
    80001618:	00012c23          	sw	zero,24(sp)
    8000161c:	02012023          	sw	zero,32(sp)
    80001620:	00040793          	mv	a5,s0
    80001624:	00000b93          	li	s7,0
    80001628:	00000b13          	li	s6,0
    8000162c:	00000c13          	li	s8,0
    80001630:	05800693          	li	a3,88
    80001634:	06c00e13          	li	t3,108
    80001638:	06800313          	li	t1,104
    8000163c:	02f00593          	li	a1,47
    80001640:	02d00e93          	li	t4,45
    80001644:	00900613          	li	a2,9
    80001648:	02000813          	li	a6,32
    8000164c:	00100513          	li	a0,1
    80001650:	02b00893          	li	a7,43
    80001654:	02b00f13          	li	t5,43
    80001658:	0007c703          	lbu	a4,0(a5)
    8000165c:	00140413          	addi	s0,s0,1
    80001660:	fe07079b          	addiw	a5,a4,-32
    80001664:	0ff7f793          	andi	a5,a5,255
    80001668:	f2f6eae3          	bltu	a3,a5,8000159c <vsnprintf_internal+0x74>
    8000166c:	00279793          	slli	a5,a5,0x2
    80001670:	012787b3          	add	a5,a5,s2
    80001674:	0007a783          	lw	a5,0(a5)
    80001678:	012787b3          	add	a5,a5,s2
    8000167c:	00078067          	jr	a5
    80001680:	fd070c1b          	addiw	s8,a4,-48
    80001684:	00044703          	lbu	a4,0(s0)
    80001688:	00140413          	addi	s0,s0,1
    8000168c:	02e5f463          	bgeu	a1,a4,800016b4 <vsnprintf_internal+0x18c>
    80001690:	fceae8e3          	bltu	s5,a4,80001660 <vsnprintf_internal+0x138>
    80001694:	002c179b          	slliw	a5,s8,0x2
    80001698:	01878c3b          	addw	s8,a5,s8
    8000169c:	001c1c1b          	slliw	s8,s8,0x1
    800016a0:	00140413          	addi	s0,s0,1
    800016a4:	00ec0c3b          	addw	s8,s8,a4
    800016a8:	fff44703          	lbu	a4,-1(s0)
    800016ac:	fd0c0c1b          	addiw	s8,s8,-48
    800016b0:	fee5e0e3          	bltu	a1,a4,80001690 <vsnprintf_internal+0x168>
    800016b4:	fbd716e3          	bne	a4,t4,80001660 <vsnprintf_internal+0x138>
    800016b8:	41800c3b          	negw	s8,s8
    800016bc:	00040793          	mv	a5,s0
    800016c0:	f99ff06f          	j	80001658 <vsnprintf_internal+0x130>
    800016c4:	00200793          	li	a5,2
    800016c8:	008a0513          	addi	a0,s4,8
    800016cc:	74fb8063          	beq	s7,a5,80001e0c <vsnprintf_internal+0x8e4>
    800016d0:	4b77da63          	bge	a5,s7,80001b84 <vsnprintf_internal+0x65c>
    800016d4:	00300793          	li	a5,3
    800016d8:	00fb8663          	beq	s7,a5,800016e4 <vsnprintf_internal+0x1bc>
    800016dc:	00400793          	li	a5,4
    800016e0:	72fb9a63          	bne	s7,a5,80001e14 <vsnprintf_internal+0x8ec>
    800016e4:	000a3483          	ld	s1,0(s4)
    800016e8:	01810c93          	addi	s9,sp,24
    800016ec:	00050a13          	mv	s4,a0
    800016f0:	06010fa3          	sb	zero,127(sp)
    800016f4:	07f10713          	addi	a4,sp,127
    800016f8:	00f00613          	li	a2,15
    800016fc:	0080006f          	j	80001704 <vsnprintf_internal+0x1dc>
    80001700:	00068493          	mv	s1,a3
    80001704:	00f4f793          	andi	a5,s1,15
    80001708:	00f987b3          	add	a5,s3,a5
    8000170c:	0007c783          	lbu	a5,0(a5)
    80001710:	fff70713          	addi	a4,a4,-1
    80001714:	0044d693          	srli	a3,s1,0x4
    80001718:	00f70023          	sb	a5,0(a4)
    8000171c:	fe9662e3          	bltu	a2,s1,80001700 <vsnprintf_internal+0x1d8>
    80001720:	08010793          	addi	a5,sp,128
    80001724:	40e7873b          	subw	a4,a5,a4
    80001728:	fff70d1b          	addiw	s10,a4,-1
    8000172c:	ffe7079b          	addiw	a5,a4,-2
    80001730:	fffd4493          	not	s1,s10
    80001734:	00f13023          	sd	a5,0(sp)
    80001738:	08010793          	addi	a5,sp,128
    8000173c:	009784b3          	add	s1,a5,s1
    80001740:	00000b93          	li	s7,0
    80001744:	136d5a63          	bge	s10,s6,80001878 <vsnprintf_internal+0x350>
    80001748:	41ab083b          	subw	a6,s6,s10
    8000174c:	01780b3b          	addw	s6,a6,s7
    80001750:	01ab073b          	addw	a4,s6,s10
    80001754:	00000d93          	li	s11,0
    80001758:	01875463          	bge	a4,s8,80001760 <vsnprintf_internal+0x238>
    8000175c:	40ec0dbb          	subw	s11,s8,a4
    80001760:	01813683          	ld	a3,24(sp)
    80001764:	fff00713          	li	a4,-1
    80001768:	01875713          	srli	a4,a4,0x18
    8000176c:	00e6f6b3          	and	a3,a3,a4
    80001770:	00100713          	li	a4,1
    80001774:	02571713          	slli	a4,a4,0x25
    80001778:	3ae68063          	beq	a3,a4,80001b18 <vsnprintf_internal+0x5f0>
    8000177c:	3a0b9c63          	bnez	s7,80001b34 <vsnprintf_internal+0x60c>
    80001780:	01813683          	ld	a3,24(sp)
    80001784:	fff00713          	li	a4,-1
    80001788:	01875713          	srli	a4,a4,0x18
    8000178c:	00e6f6b3          	and	a3,a3,a4
    80001790:	00300713          	li	a4,3
    80001794:	02471713          	slli	a4,a4,0x24
    80001798:	3ce68863          	beq	a3,a4,80001b68 <vsnprintf_internal+0x640>
    8000179c:	000c8613          	mv	a2,s9
    800017a0:	00080593          	mv	a1,a6
    800017a4:	03000513          	li	a0,48
    800017a8:	ce5ff0ef          	jal	ra,8000148c <__putch>
    800017ac:	020d0463          	beqz	s10,800017d4 <vsnprintf_internal+0x2ac>
    800017b0:	00016b03          	lwu	s6,0(sp)
    800017b4:	001b0b13          	addi	s6,s6,1
    800017b8:	01648b33          	add	s6,s1,s6
    800017bc:	00148493          	addi	s1,s1,1
    800017c0:	fff4c503          	lbu	a0,-1(s1)
    800017c4:	000c8613          	mv	a2,s9
    800017c8:	00100593          	li	a1,1
    800017cc:	cc1ff0ef          	jal	ra,8000148c <__putch>
    800017d0:	ff6496e3          	bne	s1,s6,800017bc <vsnprintf_internal+0x294>
    800017d4:	01812783          	lw	a5,24(sp)
    800017d8:	dc0782e3          	beqz	a5,8000159c <vsnprintf_internal+0x74>
    800017dc:	01c14503          	lbu	a0,28(sp)
    800017e0:	000c8613          	mv	a2,s9
    800017e4:	000d8593          	mv	a1,s11
    800017e8:	ca5ff0ef          	jal	ra,8000148c <__putch>
    800017ec:	db1ff06f          	j	8000159c <vsnprintf_internal+0x74>
    800017f0:	01812783          	lw	a5,24(sp)
    800017f4:	ec0794e3          	bnez	a5,800016bc <vsnprintf_internal+0x194>
    800017f8:	03000793          	li	a5,48
    800017fc:	00f10e23          	sb	a5,28(sp)
    80001800:	00040793          	mv	a5,s0
    80001804:	e55ff06f          	j	80001658 <vsnprintf_internal+0x130>
    80001808:	00200793          	li	a5,2
    8000180c:	60fb8e63          	beq	s7,a5,80001e28 <vsnprintf_internal+0x900>
    80001810:	4377d663          	bge	a5,s7,80001c3c <vsnprintf_internal+0x714>
    80001814:	00300793          	li	a5,3
    80001818:	64fb8063          	beq	s7,a5,80001e58 <vsnprintf_internal+0x930>
    8000181c:	00400793          	li	a5,4
    80001820:	00a00713          	li	a4,10
    80001824:	60fb9a63          	bne	s7,a5,80001e38 <vsnprintf_internal+0x910>
    80001828:	00800693          	li	a3,8
    8000182c:	008a0513          	addi	a0,s4,8
    80001830:	000a3783          	ld	a5,0(s4)
    80001834:	44d70263          	beq	a4,a3,80001c78 <vsnprintf_internal+0x750>
    80001838:	00a00693          	li	a3,10
    8000183c:	00050a13          	mv	s4,a0
    80001840:	66d70463          	beq	a4,a3,80001ea8 <vsnprintf_internal+0x980>
    80001844:	fff00793          	li	a5,-1
    80001848:	00f13023          	sd	a5,0(sp)
    8000184c:	fff00493          	li	s1,-1
    80001850:	00000b93          	li	s7,0
    80001854:	00000d13          	li	s10,0
    80001858:	08010793          	addi	a5,sp,128
    8000185c:	009784b3          	add	s1,a5,s1
    80001860:	01810c93          	addi	s9,sp,24
    80001864:	ee0b80e3          	beqz	s7,80001744 <vsnprintf_internal+0x21c>
    80001868:	02012b83          	lw	s7,32(sp)
    8000186c:	01810c93          	addi	s9,sp,24
    80001870:	01703bb3          	snez	s7,s7
    80001874:	ed6d4ae3          	blt	s10,s6,80001748 <vsnprintf_internal+0x220>
    80001878:	000b8b13          	mv	s6,s7
    8000187c:	00000813          	li	a6,0
    80001880:	ed1ff06f          	j	80001750 <vsnprintf_internal+0x228>
    80001884:	008a0c93          	addi	s9,s4,8
    80001888:	000a3483          	ld	s1,0(s4)
    8000188c:	500b0a63          	beqz	s6,80001da0 <vsnprintf_internal+0x878>
    80001890:	fffb0b9b          	addiw	s7,s6,-1
    80001894:	000c8a13          	mv	s4,s9
    80001898:	00000d13          	li	s10,0
    8000189c:	018b5463          	bge	s6,s8,800018a4 <vsnprintf_internal+0x37c>
    800018a0:	416c0d3b          	subw	s10,s8,s6
    800018a4:	01812783          	lw	a5,24(sp)
    800018a8:	3a078663          	beqz	a5,80001c54 <vsnprintf_internal+0x72c>
    800018ac:	01810c93          	addi	s9,sp,24
    800018b0:	020b0a63          	beqz	s6,800018e4 <vsnprintf_internal+0x3bc>
    800018b4:	020b9b13          	slli	s6,s7,0x20
    800018b8:	020b5b13          	srli	s6,s6,0x20
    800018bc:	001b0b13          	addi	s6,s6,1
    800018c0:	01648b33          	add	s6,s1,s6
    800018c4:	00148493          	addi	s1,s1,1
    800018c8:	fff4c503          	lbu	a0,-1(s1)
    800018cc:	000c8613          	mv	a2,s9
    800018d0:	00100593          	li	a1,1
    800018d4:	bb9ff0ef          	jal	ra,8000148c <__putch>
    800018d8:	fe9b16e3          	bne	s6,s1,800018c4 <vsnprintf_internal+0x39c>
    800018dc:	01812783          	lw	a5,24(sp)
    800018e0:	ca078ee3          	beqz	a5,8000159c <vsnprintf_internal+0x74>
    800018e4:	01c14503          	lbu	a0,28(sp)
    800018e8:	000c8613          	mv	a2,s9
    800018ec:	000d0593          	mv	a1,s10
    800018f0:	b9dff0ef          	jal	ra,8000148c <__putch>
    800018f4:	ca9ff06f          	j	8000159c <vsnprintf_internal+0x74>
    800018f8:	000a3483          	ld	s1,0(s4)
    800018fc:	008a0a13          	addi	s4,s4,8
    80001900:	46049c63          	bnez	s1,80001d78 <vsnprintf_internal+0x850>
    80001904:	02800513          	li	a0,40
    80001908:	00002497          	auipc	s1,0x2
    8000190c:	a9048493          	addi	s1,s1,-1392 # 80003398 <__am_mainargs+0x16b>
    80001910:	01810c93          	addi	s9,sp,24
    80001914:	00002b17          	auipc	s6,0x2
    80001918:	a89b0b13          	addi	s6,s6,-1399 # 8000339d <__am_mainargs+0x170>
    8000191c:	0080006f          	j	80001924 <vsnprintf_internal+0x3fc>
    80001920:	0004c503          	lbu	a0,0(s1)
    80001924:	00148493          	addi	s1,s1,1
    80001928:	000c8613          	mv	a2,s9
    8000192c:	00100593          	li	a1,1
    80001930:	b5dff0ef          	jal	ra,8000148c <__putch>
    80001934:	ff6496e3          	bne	s1,s6,80001920 <vsnprintf_internal+0x3f8>
    80001938:	c65ff06f          	j	8000159c <vsnprintf_internal+0x74>
    8000193c:	00200793          	li	a5,2
    80001940:	4cfb8e63          	beq	s7,a5,80001e1c <vsnprintf_internal+0x8f4>
    80001944:	2d77dc63          	bge	a5,s7,80001c1c <vsnprintf_internal+0x6f4>
    80001948:	00300793          	li	a5,3
    8000194c:	32fb8263          	beq	s7,a5,80001c70 <vsnprintf_internal+0x748>
    80001950:	00400793          	li	a5,4
    80001954:	00800713          	li	a4,8
    80001958:	ecfb88e3          	beq	s7,a5,80001828 <vsnprintf_internal+0x300>
    8000195c:	000a2783          	lw	a5,0(s4)
    80001960:	008a0a13          	addi	s4,s4,8
    80001964:	0077f713          	andi	a4,a5,7
    80001968:	00e98733          	add	a4,s3,a4
    8000196c:	00074603          	lbu	a2,0(a4)
    80001970:	06010fa3          	sb	zero,127(sp)
    80001974:	07f10713          	addi	a4,sp,127
    80001978:	00700593          	li	a1,7
    8000197c:	0140006f          	j	80001990 <vsnprintf_internal+0x468>
    80001980:	0076f793          	andi	a5,a3,7
    80001984:	00f987b3          	add	a5,s3,a5
    80001988:	0007c603          	lbu	a2,0(a5)
    8000198c:	0006879b          	sext.w	a5,a3
    80001990:	fff70713          	addi	a4,a4,-1
    80001994:	00c70023          	sb	a2,0(a4)
    80001998:	0037d69b          	srliw	a3,a5,0x3
    8000199c:	fef5e2e3          	bltu	a1,a5,80001980 <vsnprintf_internal+0x458>
    800019a0:	08010793          	addi	a5,sp,128
    800019a4:	40e7873b          	subw	a4,a5,a4
    800019a8:	fff70d1b          	addiw	s10,a4,-1
    800019ac:	ffe7079b          	addiw	a5,a4,-2
    800019b0:	fffd4493          	not	s1,s10
    800019b4:	00f13023          	sd	a5,0(sp)
    800019b8:	01810c93          	addi	s9,sp,24
    800019bc:	d7dff06f          	j	80001738 <vsnprintf_internal+0x210>
    800019c0:	00044703          	lbu	a4,0(s0)
    800019c4:	00140413          	addi	s0,s0,1
    800019c8:	4dc70463          	beq	a4,t3,80001e90 <vsnprintf_internal+0x968>
    800019cc:	00300b93          	li	s7,3
    800019d0:	c91ff06f          	j	80001660 <vsnprintf_internal+0x138>
    800019d4:	02a12023          	sw	a0,32(sp)
    800019d8:	03110223          	sb	a7,36(sp)
    800019dc:	00040793          	mv	a5,s0
    800019e0:	c79ff06f          	j	80001658 <vsnprintf_internal+0x130>
    800019e4:	01810613          	addi	a2,sp,24
    800019e8:	00100593          	li	a1,1
    800019ec:	02500513          	li	a0,37
    800019f0:	a9dff0ef          	jal	ra,8000148c <__putch>
    800019f4:	ba9ff06f          	j	8000159c <vsnprintf_internal+0x74>
    800019f8:	02012783          	lw	a5,32(sp)
    800019fc:	2c079863          	bnez	a5,80001ccc <vsnprintf_internal+0x7a4>
    80001a00:	02a12023          	sw	a0,32(sp)
    80001a04:	03010223          	sb	a6,36(sp)
    80001a08:	00040793          	mv	a5,s0
    80001a0c:	c4dff06f          	j	80001658 <vsnprintf_internal+0x130>
    80001a10:	00044703          	lbu	a4,0(s0)
    80001a14:	00140413          	addi	s0,s0,1
    80001a18:	fd07079b          	addiw	a5,a4,-48
    80001a1c:	0ff7f793          	andi	a5,a5,255
    80001a20:	02f66663          	bltu	a2,a5,80001a4c <vsnprintf_internal+0x524>
    80001a24:	002b179b          	slliw	a5,s6,0x2
    80001a28:	01678b3b          	addw	s6,a5,s6
    80001a2c:	001b1b1b          	slliw	s6,s6,0x1
    80001a30:	00140413          	addi	s0,s0,1
    80001a34:	00eb0b3b          	addw	s6,s6,a4
    80001a38:	fff44703          	lbu	a4,-1(s0)
    80001a3c:	fd0b0b1b          	addiw	s6,s6,-48
    80001a40:	fd07079b          	addiw	a5,a4,-48
    80001a44:	0ff7f793          	andi	a5,a5,255
    80001a48:	fcf67ee3          	bgeu	a2,a5,80001a24 <vsnprintf_internal+0x4fc>
    80001a4c:	01010e23          	sb	a6,28(sp)
    80001a50:	c11ff06f          	j	80001660 <vsnprintf_internal+0x138>
    80001a54:	00200793          	li	a5,2
    80001a58:	38fb8a63          	beq	s7,a5,80001dec <vsnprintf_internal+0x8c4>
    80001a5c:	1977d463          	bge	a5,s7,80001be4 <vsnprintf_internal+0x6bc>
    80001a60:	00300793          	li	a5,3
    80001a64:	00fb8663          	beq	s7,a5,80001a70 <vsnprintf_internal+0x548>
    80001a68:	00400793          	li	a5,4
    80001a6c:	34fb9263          	bne	s7,a5,80001db0 <vsnprintf_internal+0x888>
    80001a70:	000a3783          	ld	a5,0(s4)
    80001a74:	008a0a13          	addi	s4,s4,8
    80001a78:	2607c463          	bltz	a5,80001ce0 <vsnprintf_internal+0x7b8>
    80001a7c:	00100b93          	li	s7,1
    80001a80:	06010fa3          	sb	zero,127(sp)
    80001a84:	07f10693          	addi	a3,sp,127
    80001a88:	00a00613          	li	a2,10
    80001a8c:	00900513          	li	a0,9
    80001a90:	0080006f          	j	80001a98 <vsnprintf_internal+0x570>
    80001a94:	00058793          	mv	a5,a1
    80001a98:	02c7f733          	remu	a4,a5,a2
    80001a9c:	fff68693          	addi	a3,a3,-1
    80001aa0:	00e98733          	add	a4,s3,a4
    80001aa4:	00074703          	lbu	a4,0(a4)
    80001aa8:	02c7d5b3          	divu	a1,a5,a2
    80001aac:	00e68023          	sb	a4,0(a3)
    80001ab0:	fef562e3          	bltu	a0,a5,80001a94 <vsnprintf_internal+0x56c>
    80001ab4:	08010793          	addi	a5,sp,128
    80001ab8:	40d786bb          	subw	a3,a5,a3
    80001abc:	fff68d1b          	addiw	s10,a3,-1
    80001ac0:	ffe6879b          	addiw	a5,a3,-2
    80001ac4:	fffd4493          	not	s1,s10
    80001ac8:	00f13023          	sd	a5,0(sp)
    80001acc:	d8dff06f          	j	80001858 <vsnprintf_internal+0x330>
    80001ad0:	00a12c23          	sw	a0,24(sp)
    80001ad4:	01010e23          	sb	a6,28(sp)
    80001ad8:	00040793          	mv	a5,s0
    80001adc:	b7dff06f          	j	80001658 <vsnprintf_internal+0x130>
    80001ae0:	00044703          	lbu	a4,0(s0)
    80001ae4:	00140413          	addi	s0,s0,1
    80001ae8:	3a670a63          	beq	a4,t1,80001e9c <vsnprintf_internal+0x974>
    80001aec:	00200b93          	li	s7,2
    80001af0:	b71ff06f          	j	80001660 <vsnprintf_internal+0x138>
    80001af4:	000a2783          	lw	a5,0(s4)
    80001af8:	00000b93          	li	s7,0
    80001afc:	008a0a13          	addi	s4,s4,8
    80001b00:	04f10023          	sb	a5,64(sp)
    80001b04:	04010493          	addi	s1,sp,64
    80001b08:	00100b13          	li	s6,1
    80001b0c:	d8dff06f          	j	80001898 <vsnprintf_internal+0x370>
    80001b10:	00000513          	li	a0,0
    80001b14:	a71ff06f          	j	80001584 <vsnprintf_internal+0x5c>
    80001b18:	01c14503          	lbu	a0,28(sp)
    80001b1c:	000c8613          	mv	a2,s9
    80001b20:	000d8593          	mv	a1,s11
    80001b24:	01013423          	sd	a6,8(sp)
    80001b28:	965ff0ef          	jal	ra,8000148c <__putch>
    80001b2c:	00813803          	ld	a6,8(sp)
    80001b30:	c40b88e3          	beqz	s7,80001780 <vsnprintf_internal+0x258>
    80001b34:	02414503          	lbu	a0,36(sp)
    80001b38:	000c8613          	mv	a2,s9
    80001b3c:	00100593          	li	a1,1
    80001b40:	01013423          	sd	a6,8(sp)
    80001b44:	949ff0ef          	jal	ra,8000148c <__putch>
    80001b48:	01813683          	ld	a3,24(sp)
    80001b4c:	fff00713          	li	a4,-1
    80001b50:	01875713          	srli	a4,a4,0x18
    80001b54:	00e6f6b3          	and	a3,a3,a4
    80001b58:	00300713          	li	a4,3
    80001b5c:	02471713          	slli	a4,a4,0x24
    80001b60:	00813803          	ld	a6,8(sp)
    80001b64:	c2e69ce3          	bne	a3,a4,8000179c <vsnprintf_internal+0x274>
    80001b68:	01c14503          	lbu	a0,28(sp)
    80001b6c:	000c8613          	mv	a2,s9
    80001b70:	000d8593          	mv	a1,s11
    80001b74:	01013423          	sd	a6,8(sp)
    80001b78:	915ff0ef          	jal	ra,8000148c <__putch>
    80001b7c:	00813803          	ld	a6,8(sp)
    80001b80:	c1dff06f          	j	8000179c <vsnprintf_internal+0x274>
    80001b84:	00100793          	li	a5,1
    80001b88:	28fb9663          	bne	s7,a5,80001e14 <vsnprintf_internal+0x8ec>
    80001b8c:	000a4703          	lbu	a4,0(s4)
    80001b90:	06010fa3          	sb	zero,127(sp)
    80001b94:	07f10693          	addi	a3,sp,127
    80001b98:	00f00593          	li	a1,15
    80001b9c:	0080006f          	j	80001ba4 <vsnprintf_internal+0x67c>
    80001ba0:	00060713          	mv	a4,a2
    80001ba4:	00f77793          	andi	a5,a4,15
    80001ba8:	00f987b3          	add	a5,s3,a5
    80001bac:	0007c783          	lbu	a5,0(a5)
    80001bb0:	fff68693          	addi	a3,a3,-1
    80001bb4:	0047561b          	srliw	a2,a4,0x4
    80001bb8:	00f68023          	sb	a5,0(a3)
    80001bbc:	fee5e2e3          	bltu	a1,a4,80001ba0 <vsnprintf_internal+0x678>
    80001bc0:	08010793          	addi	a5,sp,128
    80001bc4:	40d786bb          	subw	a3,a5,a3
    80001bc8:	fff68d1b          	addiw	s10,a3,-1
    80001bcc:	ffe6879b          	addiw	a5,a3,-2
    80001bd0:	fffd4493          	not	s1,s10
    80001bd4:	00f13023          	sd	a5,0(sp)
    80001bd8:	00050a13          	mv	s4,a0
    80001bdc:	01810c93          	addi	s9,sp,24
    80001be0:	b59ff06f          	j	80001738 <vsnprintf_internal+0x210>
    80001be4:	00100793          	li	a5,1
    80001be8:	1cfb9463          	bne	s7,a5,80001db0 <vsnprintf_internal+0x888>
    80001bec:	000a2703          	lw	a4,0(s4)
    80001bf0:	008a0793          	addi	a5,s4,8
    80001bf4:	0187169b          	slliw	a3,a4,0x18
    80001bf8:	4186d69b          	sraiw	a3,a3,0x18
    80001bfc:	0e06ce63          	bltz	a3,80001cf8 <vsnprintf_internal+0x7d0>
    80001c00:	0ff77713          	andi	a4,a4,255
    80001c04:	00a00693          	li	a3,10
    80001c08:	02d776bb          	remuw	a3,a4,a3
    80001c0c:	00078a13          	mv	s4,a5
    80001c10:	00d987b3          	add	a5,s3,a3
    80001c14:	0007c783          	lbu	a5,0(a5)
    80001c18:	1100006f          	j	80001d28 <vsnprintf_internal+0x800>
    80001c1c:	00100793          	li	a5,1
    80001c20:	d2fb9ee3          	bne	s7,a5,8000195c <vsnprintf_internal+0x434>
    80001c24:	000a4783          	lbu	a5,0(s4)
    80001c28:	008a0a13          	addi	s4,s4,8
    80001c2c:	0077f713          	andi	a4,a5,7
    80001c30:	00e98733          	add	a4,s3,a4
    80001c34:	00074603          	lbu	a2,0(a4)
    80001c38:	d39ff06f          	j	80001970 <vsnprintf_internal+0x448>
    80001c3c:	00100793          	li	a5,1
    80001c40:	1efb9c63          	bne	s7,a5,80001e38 <vsnprintf_internal+0x910>
    80001c44:	008a0793          	addi	a5,s4,8
    80001c48:	000a4703          	lbu	a4,0(s4)
    80001c4c:	00000b93          	li	s7,0
    80001c50:	fb5ff06f          	j	80001c04 <vsnprintf_internal+0x6dc>
    80001c54:	01c14503          	lbu	a0,28(sp)
    80001c58:	01810c93          	addi	s9,sp,24
    80001c5c:	000c8613          	mv	a2,s9
    80001c60:	000d0593          	mv	a1,s10
    80001c64:	829ff0ef          	jal	ra,8000148c <__putch>
    80001c68:	c40b16e3          	bnez	s6,800018b4 <vsnprintf_internal+0x38c>
    80001c6c:	c71ff06f          	j	800018dc <vsnprintf_internal+0x3b4>
    80001c70:	000a3783          	ld	a5,0(s4)
    80001c74:	008a0513          	addi	a0,s4,8
    80001c78:	06010fa3          	sb	zero,127(sp)
    80001c7c:	07f10693          	addi	a3,sp,127
    80001c80:	00700593          	li	a1,7
    80001c84:	0080006f          	j	80001c8c <vsnprintf_internal+0x764>
    80001c88:	00060793          	mv	a5,a2
    80001c8c:	0077f713          	andi	a4,a5,7
    80001c90:	00e98733          	add	a4,s3,a4
    80001c94:	00074703          	lbu	a4,0(a4)
    80001c98:	fff68693          	addi	a3,a3,-1
    80001c9c:	0037d613          	srli	a2,a5,0x3
    80001ca0:	00e68023          	sb	a4,0(a3)
    80001ca4:	fef5e2e3          	bltu	a1,a5,80001c88 <vsnprintf_internal+0x760>
    80001ca8:	08010793          	addi	a5,sp,128
    80001cac:	40d786bb          	subw	a3,a5,a3
    80001cb0:	fff68d1b          	addiw	s10,a3,-1
    80001cb4:	ffe6879b          	addiw	a5,a3,-2
    80001cb8:	fffd4493          	not	s1,s10
    80001cbc:	00f13023          	sd	a5,0(sp)
    80001cc0:	00050a13          	mv	s4,a0
    80001cc4:	01810c93          	addi	s9,sp,24
    80001cc8:	a71ff06f          	j	80001738 <vsnprintf_internal+0x210>
    80001ccc:	02414783          	lbu	a5,36(sp)
    80001cd0:	9fe786e3          	beq	a5,t5,800016bc <vsnprintf_internal+0x194>
    80001cd4:	02a12023          	sw	a0,32(sp)
    80001cd8:	03010223          	sb	a6,36(sp)
    80001cdc:	d2dff06f          	j	80001a08 <vsnprintf_internal+0x4e0>
    80001ce0:	02d00713          	li	a4,45
    80001ce4:	02e10223          	sb	a4,36(sp)
    80001ce8:	00100713          	li	a4,1
    80001cec:	02e12023          	sw	a4,32(sp)
    80001cf0:	40f007b3          	neg	a5,a5
    80001cf4:	d89ff06f          	j	80001a7c <vsnprintf_internal+0x554>
    80001cf8:	fff74713          	not	a4,a4
    80001cfc:	0ff77713          	andi	a4,a4,255
    80001d00:	02d00693          	li	a3,45
    80001d04:	02d10223          	sb	a3,36(sp)
    80001d08:	03712023          	sw	s7,32(sp)
    80001d0c:	00170713          	addi	a4,a4,1
    80001d10:	00078a13          	mv	s4,a5
    80001d14:	00a00793          	li	a5,10
    80001d18:	02f777bb          	remuw	a5,a4,a5
    80001d1c:	00100b93          	li	s7,1
    80001d20:	00f987b3          	add	a5,s3,a5
    80001d24:	0007c783          	lbu	a5,0(a5)
    80001d28:	06010fa3          	sb	zero,127(sp)
    80001d2c:	07f10693          	addi	a3,sp,127
    80001d30:	00a00613          	li	a2,10
    80001d34:	00900593          	li	a1,9
    80001d38:	0140006f          	j	80001d4c <vsnprintf_internal+0x824>
    80001d3c:	0007871b          	sext.w	a4,a5
    80001d40:	02c7f7bb          	remuw	a5,a5,a2
    80001d44:	00f987b3          	add	a5,s3,a5
    80001d48:	0007c783          	lbu	a5,0(a5)
    80001d4c:	fff68693          	addi	a3,a3,-1
    80001d50:	00f68023          	sb	a5,0(a3)
    80001d54:	02c757bb          	divuw	a5,a4,a2
    80001d58:	fee5e2e3          	bltu	a1,a4,80001d3c <vsnprintf_internal+0x814>
    80001d5c:	08010793          	addi	a5,sp,128
    80001d60:	40d786bb          	subw	a3,a5,a3
    80001d64:	fff68d1b          	addiw	s10,a3,-1
    80001d68:	ffe6879b          	addiw	a5,a3,-2
    80001d6c:	fffd4493          	not	s1,s10
    80001d70:	00f13023          	sd	a5,0(sp)
    80001d74:	ae5ff06f          	j	80001858 <vsnprintf_internal+0x330>
    80001d78:	01810c93          	addi	s9,sp,24
    80001d7c:	000c8613          	mv	a2,s9
    80001d80:	00100593          	li	a1,1
    80001d84:	03000513          	li	a0,48
    80001d88:	f04ff0ef          	jal	ra,8000148c <__putch>
    80001d8c:	000c8613          	mv	a2,s9
    80001d90:	00100593          	li	a1,1
    80001d94:	07800513          	li	a0,120
    80001d98:	ef4ff0ef          	jal	ra,8000148c <__putch>
    80001d9c:	955ff06f          	j	800016f0 <vsnprintf_internal+0x1c8>
    80001da0:	00048513          	mv	a0,s1
    80001da4:	158000ef          	jal	ra,80001efc <strlen>
    80001da8:	00050b1b          	sext.w	s6,a0
    80001dac:	ae5ff06f          	j	80001890 <vsnprintf_internal+0x368>
    80001db0:	000a2783          	lw	a5,0(s4)
    80001db4:	008a0a13          	addi	s4,s4,8
    80001db8:	0007871b          	sext.w	a4,a5
    80001dbc:	f407dce3          	bgez	a5,80001d14 <vsnprintf_internal+0x7ec>
    80001dc0:	40e0073b          	negw	a4,a4
    80001dc4:	00a00793          	li	a5,10
    80001dc8:	02f777bb          	remuw	a5,a4,a5
    80001dcc:	02d00693          	li	a3,45
    80001dd0:	02d10223          	sb	a3,36(sp)
    80001dd4:	00100693          	li	a3,1
    80001dd8:	02d12023          	sw	a3,32(sp)
    80001ddc:	00100b93          	li	s7,1
    80001de0:	00f987b3          	add	a5,s3,a5
    80001de4:	0007c783          	lbu	a5,0(a5)
    80001de8:	f41ff06f          	j	80001d28 <vsnprintf_internal+0x800>
    80001dec:	000a2703          	lw	a4,0(s4)
    80001df0:	008a0793          	addi	a5,s4,8
    80001df4:	03071693          	slli	a3,a4,0x30
    80001df8:	0606c863          	bltz	a3,80001e68 <vsnprintf_internal+0x940>
    80001dfc:	03071713          	slli	a4,a4,0x30
    80001e00:	03075713          	srli	a4,a4,0x30
    80001e04:	00100b93          	li	s7,1
    80001e08:	dfdff06f          	j	80001c04 <vsnprintf_internal+0x6dc>
    80001e0c:	000a5703          	lhu	a4,0(s4)
    80001e10:	d81ff06f          	j	80001b90 <vsnprintf_internal+0x668>
    80001e14:	000a2703          	lw	a4,0(s4)
    80001e18:	d79ff06f          	j	80001b90 <vsnprintf_internal+0x668>
    80001e1c:	000a5783          	lhu	a5,0(s4)
    80001e20:	008a0a13          	addi	s4,s4,8
    80001e24:	e09ff06f          	j	80001c2c <vsnprintf_internal+0x704>
    80001e28:	008a0793          	addi	a5,s4,8
    80001e2c:	000a5703          	lhu	a4,0(s4)
    80001e30:	00000b93          	li	s7,0
    80001e34:	dd1ff06f          	j	80001c04 <vsnprintf_internal+0x6dc>
    80001e38:	000a2703          	lw	a4,0(s4)
    80001e3c:	00a00793          	li	a5,10
    80001e40:	008a0a13          	addi	s4,s4,8
    80001e44:	02f777bb          	remuw	a5,a4,a5
    80001e48:	00000b93          	li	s7,0
    80001e4c:	00f987b3          	add	a5,s3,a5
    80001e50:	0007c783          	lbu	a5,0(a5)
    80001e54:	ed5ff06f          	j	80001d28 <vsnprintf_internal+0x800>
    80001e58:	000a3783          	ld	a5,0(s4)
    80001e5c:	00000b93          	li	s7,0
    80001e60:	008a0a13          	addi	s4,s4,8
    80001e64:	c1dff06f          	j	80001a80 <vsnprintf_internal+0x558>
    80001e68:	fff74713          	not	a4,a4
    80001e6c:	02d00693          	li	a3,45
    80001e70:	0107171b          	slliw	a4,a4,0x10
    80001e74:	0107571b          	srliw	a4,a4,0x10
    80001e78:	02d10223          	sb	a3,36(sp)
    80001e7c:	00100693          	li	a3,1
    80001e80:	02d12023          	sw	a3,32(sp)
    80001e84:	00170713          	addi	a4,a4,1
    80001e88:	00078a13          	mv	s4,a5
    80001e8c:	e89ff06f          	j	80001d14 <vsnprintf_internal+0x7ec>
    80001e90:	00400b93          	li	s7,4
    80001e94:	00040793          	mv	a5,s0
    80001e98:	fc0ff06f          	j	80001658 <vsnprintf_internal+0x130>
    80001e9c:	00100b93          	li	s7,1
    80001ea0:	00040793          	mv	a5,s0
    80001ea4:	fb4ff06f          	j	80001658 <vsnprintf_internal+0x130>
    80001ea8:	00000b93          	li	s7,0
    80001eac:	bd5ff06f          	j	80001a80 <vsnprintf_internal+0x558>

Disassembly of section .text.printf:

0000000080001eb0 <printf>:
    80001eb0:	fa010113          	addi	sp,sp,-96
    80001eb4:	02810313          	addi	t1,sp,40
    80001eb8:	02b13423          	sd	a1,40(sp)
    80001ebc:	02c13823          	sd	a2,48(sp)
    80001ec0:	02d13c23          	sd	a3,56(sp)
    80001ec4:	00050613          	mv	a2,a0
    80001ec8:	00030693          	mv	a3,t1
    80001ecc:	00000593          	li	a1,0
    80001ed0:	00000513          	li	a0,0
    80001ed4:	00113c23          	sd	ra,24(sp)
    80001ed8:	04e13023          	sd	a4,64(sp)
    80001edc:	04f13423          	sd	a5,72(sp)
    80001ee0:	05013823          	sd	a6,80(sp)
    80001ee4:	05113c23          	sd	a7,88(sp)
    80001ee8:	00613423          	sd	t1,8(sp)
    80001eec:	e3cff0ef          	jal	ra,80001528 <vsnprintf_internal>
    80001ef0:	01813083          	ld	ra,24(sp)
    80001ef4:	06010113          	addi	sp,sp,96
    80001ef8:	00008067          	ret

Disassembly of section .text.strlen:

0000000080001efc <strlen>:
    80001efc:	00054783          	lbu	a5,0(a0)
    80001f00:	02078063          	beqz	a5,80001f20 <strlen+0x24>
    80001f04:	00000793          	li	a5,0
    80001f08:	00178793          	addi	a5,a5,1
    80001f0c:	00f50733          	add	a4,a0,a5
    80001f10:	00074703          	lbu	a4,0(a4)
    80001f14:	fe071ae3          	bnez	a4,80001f08 <strlen+0xc>
    80001f18:	00078513          	mv	a0,a5
    80001f1c:	00008067          	ret
    80001f20:	00000793          	li	a5,0
    80001f24:	00078513          	mv	a0,a5
    80001f28:	00008067          	ret

Disassembly of section .text.strcmp:

0000000080001f2c <strcmp>:
    80001f2c:	00054783          	lbu	a5,0(a0)
    80001f30:	0005c703          	lbu	a4,0(a1)
    80001f34:	00078e63          	beqz	a5,80001f50 <strcmp+0x24>
    80001f38:	02e79263          	bne	a5,a4,80001f5c <strcmp+0x30>
    80001f3c:	00150513          	addi	a0,a0,1
    80001f40:	00054783          	lbu	a5,0(a0)
    80001f44:	00158593          	addi	a1,a1,1
    80001f48:	0005c703          	lbu	a4,0(a1)
    80001f4c:	fe0796e3          	bnez	a5,80001f38 <strcmp+0xc>
    80001f50:	00000513          	li	a0,0
    80001f54:	40e5053b          	subw	a0,a0,a4
    80001f58:	00008067          	ret
    80001f5c:	0007851b          	sext.w	a0,a5
    80001f60:	40e5053b          	subw	a0,a0,a4
    80001f64:	00008067          	ret

Disassembly of section .text.strncmp:

0000000080001f68 <strncmp>:
    80001f68:	fff60613          	addi	a2,a2,-1
    80001f6c:	00054703          	lbu	a4,0(a0)
    80001f70:	0005c803          	lbu	a6,0(a1)
    80001f74:	02060e63          	beqz	a2,80001fb0 <strncmp+0x48>
    80001f78:	02070c63          	beqz	a4,80001fb0 <strncmp+0x48>
    80001f7c:	03071a63          	bne	a4,a6,80001fb0 <strncmp+0x48>
    80001f80:	00150793          	addi	a5,a0,1
    80001f84:	00c50533          	add	a0,a0,a2
    80001f88:	0180006f          	j	80001fa0 <strncmp+0x38>
    80001f8c:	02070063          	beqz	a4,80001fac <strncmp+0x44>
    80001f90:	0006c803          	lbu	a6,0(a3)
    80001f94:	00178793          	addi	a5,a5,1
    80001f98:	00068593          	mv	a1,a3
    80001f9c:	00e81a63          	bne	a6,a4,80001fb0 <strncmp+0x48>
    80001fa0:	0007c703          	lbu	a4,0(a5)
    80001fa4:	00158693          	addi	a3,a1,1
    80001fa8:	fef512e3          	bne	a0,a5,80001f8c <strncmp+0x24>
    80001fac:	0015c803          	lbu	a6,1(a1)
    80001fb0:	4107053b          	subw	a0,a4,a6
    80001fb4:	00008067          	ret

Disassembly of section .text.memcpy:

0000000080001fb8 <memcpy>:
    80001fb8:	01f00793          	li	a5,31
    80001fbc:	1ec7f663          	bgeu	a5,a2,800021a8 <memcpy+0x1f0>
    80001fc0:	40b507b3          	sub	a5,a0,a1
    80001fc4:	0077f713          	andi	a4,a5,7
    80001fc8:	0e071463          	bnez	a4,800020b0 <memcpy+0xf8>
    80001fcc:	00757713          	andi	a4,a0,7
    80001fd0:	fff7079b          	addiw	a5,a4,-1
    80001fd4:	40e60633          	sub	a2,a2,a4
    80001fd8:	0007889b          	sext.w	a7,a5
    80001fdc:	20070263          	beqz	a4,800021e0 <memcpy+0x228>
    80001fe0:	02079693          	slli	a3,a5,0x20
    80001fe4:	0206d693          	srli	a3,a3,0x20
    80001fe8:	00168693          	addi	a3,a3,1
    80001fec:	00d506b3          	add	a3,a0,a3
    80001ff0:	00058713          	mv	a4,a1
    80001ff4:	00050793          	mv	a5,a0
    80001ff8:	00170713          	addi	a4,a4,1
    80001ffc:	fff74803          	lbu	a6,-1(a4)
    80002000:	00178793          	addi	a5,a5,1
    80002004:	ff078fa3          	sb	a6,-1(a5)
    80002008:	fed798e3          	bne	a5,a3,80001ff8 <memcpy+0x40>
    8000200c:	00188793          	addi	a5,a7,1
    80002010:	00f50733          	add	a4,a0,a5
    80002014:	00f585b3          	add	a1,a1,a5
    80002018:	01f00793          	li	a5,31
    8000201c:	04c7fc63          	bgeu	a5,a2,80002074 <memcpy+0xbc>
    80002020:	fe060893          	addi	a7,a2,-32
    80002024:	fe08f893          	andi	a7,a7,-32
    80002028:	02088893          	addi	a7,a7,32
    8000202c:	01170833          	add	a6,a4,a7
    80002030:	00058793          	mv	a5,a1
    80002034:	0007b683          	ld	a3,0(a5)
    80002038:	02070713          	addi	a4,a4,32
    8000203c:	02078793          	addi	a5,a5,32
    80002040:	fed73023          	sd	a3,-32(a4)
    80002044:	fe87b683          	ld	a3,-24(a5)
    80002048:	fed73423          	sd	a3,-24(a4)
    8000204c:	ff07b683          	ld	a3,-16(a5)
    80002050:	fed73823          	sd	a3,-16(a4)
    80002054:	ff87b683          	ld	a3,-8(a5)
    80002058:	fed73c23          	sd	a3,-8(a4)
    8000205c:	fce81ce3          	bne	a6,a4,80002034 <memcpy+0x7c>
    80002060:	01867693          	andi	a3,a2,24
    80002064:	011585b3          	add	a1,a1,a7
    80002068:	01f67613          	andi	a2,a2,31
    8000206c:	00070793          	mv	a5,a4
    80002070:	12068e63          	beqz	a3,800021ac <memcpy+0x1f4>
    80002074:	ff860893          	addi	a7,a2,-8
    80002078:	ff88f893          	andi	a7,a7,-8
    8000207c:	00888893          	addi	a7,a7,8
    80002080:	011707b3          	add	a5,a4,a7
    80002084:	00058693          	mv	a3,a1
    80002088:	00868693          	addi	a3,a3,8
    8000208c:	ff86b803          	ld	a6,-8(a3)
    80002090:	00870713          	addi	a4,a4,8
    80002094:	ff073c23          	sd	a6,-8(a4)
    80002098:	fef718e3          	bne	a4,a5,80002088 <memcpy+0xd0>
    8000209c:	00767613          	andi	a2,a2,7
    800020a0:	011585b3          	add	a1,a1,a7
    800020a4:	fff60693          	addi	a3,a2,-1
    800020a8:	10061663          	bnez	a2,800021b4 <memcpy+0x1fc>
    800020ac:	00008067          	ret
    800020b0:	0037f793          	andi	a5,a5,3
    800020b4:	12079063          	bnez	a5,800021d4 <memcpy+0x21c>
    800020b8:	00357813          	andi	a6,a0,3
    800020bc:	41060633          	sub	a2,a2,a6
    800020c0:	00050713          	mv	a4,a0
    800020c4:	02080c63          	beqz	a6,800020fc <memcpy+0x144>
    800020c8:	fff8031b          	addiw	t1,a6,-1
    800020cc:	00058693          	mv	a3,a1
    800020d0:	00050793          	mv	a5,a0
    800020d4:	00168693          	addi	a3,a3,1
    800020d8:	fff6c883          	lbu	a7,-1(a3)
    800020dc:	00178793          	addi	a5,a5,1
    800020e0:	40f5073b          	subw	a4,a0,a5
    800020e4:	ff178fa3          	sb	a7,-1(a5)
    800020e8:	0107073b          	addw	a4,a4,a6
    800020ec:	fe0714e3          	bnez	a4,800020d4 <memcpy+0x11c>
    800020f0:	00130793          	addi	a5,t1,1
    800020f4:	00f50733          	add	a4,a0,a5
    800020f8:	00f585b3          	add	a1,a1,a5
    800020fc:	01f00793          	li	a5,31
    80002100:	06c7fa63          	bgeu	a5,a2,80002174 <memcpy+0x1bc>
    80002104:	fe060893          	addi	a7,a2,-32
    80002108:	fe08f893          	andi	a7,a7,-32
    8000210c:	02088893          	addi	a7,a7,32
    80002110:	011707b3          	add	a5,a4,a7
    80002114:	00058693          	mv	a3,a1
    80002118:	0006a803          	lw	a6,0(a3)
    8000211c:	02070713          	addi	a4,a4,32
    80002120:	02068693          	addi	a3,a3,32
    80002124:	ff072023          	sw	a6,-32(a4)
    80002128:	fe46a803          	lw	a6,-28(a3)
    8000212c:	ff072223          	sw	a6,-28(a4)
    80002130:	fe86a803          	lw	a6,-24(a3)
    80002134:	ff072423          	sw	a6,-24(a4)
    80002138:	fec6a803          	lw	a6,-20(a3)
    8000213c:	ff072623          	sw	a6,-20(a4)
    80002140:	ff06a803          	lw	a6,-16(a3)
    80002144:	ff072823          	sw	a6,-16(a4)
    80002148:	ff46a803          	lw	a6,-12(a3)
    8000214c:	ff072a23          	sw	a6,-12(a4)
    80002150:	ff86a803          	lw	a6,-8(a3)
    80002154:	ff072c23          	sw	a6,-8(a4)
    80002158:	ffc6a803          	lw	a6,-4(a3)
    8000215c:	ff072e23          	sw	a6,-4(a4)
    80002160:	fae79ce3          	bne	a5,a4,80002118 <memcpy+0x160>
    80002164:	01c67693          	andi	a3,a2,28
    80002168:	011585b3          	add	a1,a1,a7
    8000216c:	01f67613          	andi	a2,a2,31
    80002170:	02068e63          	beqz	a3,800021ac <memcpy+0x1f4>
    80002174:	ffc60893          	addi	a7,a2,-4
    80002178:	ffc8f893          	andi	a7,a7,-4
    8000217c:	00488893          	addi	a7,a7,4
    80002180:	011707b3          	add	a5,a4,a7
    80002184:	00058693          	mv	a3,a1
    80002188:	00468693          	addi	a3,a3,4
    8000218c:	ffc6a803          	lw	a6,-4(a3)
    80002190:	00470713          	addi	a4,a4,4
    80002194:	ff072e23          	sw	a6,-4(a4)
    80002198:	fef718e3          	bne	a4,a5,80002188 <memcpy+0x1d0>
    8000219c:	00367613          	andi	a2,a2,3
    800021a0:	011585b3          	add	a1,a1,a7
    800021a4:	0080006f          	j	800021ac <memcpy+0x1f4>
    800021a8:	00050793          	mv	a5,a0
    800021ac:	fff60693          	addi	a3,a2,-1
    800021b0:	ee060ee3          	beqz	a2,800020ac <memcpy+0xf4>
    800021b4:	00168693          	addi	a3,a3,1
    800021b8:	00d786b3          	add	a3,a5,a3
    800021bc:	00158593          	addi	a1,a1,1
    800021c0:	fff5c703          	lbu	a4,-1(a1)
    800021c4:	00178793          	addi	a5,a5,1
    800021c8:	fee78fa3          	sb	a4,-1(a5)
    800021cc:	fed798e3          	bne	a5,a3,800021bc <memcpy+0x204>
    800021d0:	00008067          	ret
    800021d4:	fff60693          	addi	a3,a2,-1
    800021d8:	00050793          	mv	a5,a0
    800021dc:	fd9ff06f          	j	800021b4 <memcpy+0x1fc>
    800021e0:	00050713          	mv	a4,a0
    800021e4:	e35ff06f          	j	80002018 <memcpy+0x60>
